
./linux/bbl:     file format elf64-littleriscv
./linux/bbl
architecture: riscv:rv64, flags 0x00000112:
EXEC_P, HAS_SYMS, D_PAGED
start address 0x0000000080000000

Program Header:
    LOAD off    0x0000000000001000 vaddr 0x0000000080000000 paddr 0x0000000080000000 align 2**12
         filesz 0x000000000000703d memsz 0x000000000000703d flags r-x
    LOAD off    0x0000000000009000 vaddr 0x0000000080008000 paddr 0x0000000080008000 align 2**12
         filesz 0x00000000000010a0 memsz 0x000000000000b080 flags rw-
    LOAD off    0x0000000000200000 vaddr 0x0000000080200000 paddr 0x0000000080200000 align 2**12
         filesz 0x0000000000526330 memsz 0x0000000000526330 flags r--

Sections:
Idx Name          Size      VMA               LMA               File off  Algn
  0 .text         00006358  0000000080000000  0000000080000000  00001000  2**2
                  CONTENTS, ALLOC, LOAD, READONLY, CODE
  1 .rodata       00000ce5  0000000080006358  0000000080006358  00007358  2**3
                  CONTENTS, ALLOC, LOAD, READONLY, DATA
  2 .htif         00000010  0000000080008000  0000000080008000  00009000  2**3
                  CONTENTS, ALLOC, LOAD, DATA
  3 .data         00000099  0000000080009000  0000000080009000  0000a000  2**6
                  CONTENTS, ALLOC, LOAD, DATA
  4 .sdata        00000004  000000008000909c  000000008000909c  0000a09c  2**2
                  CONTENTS, ALLOC, LOAD, DATA
  5 .bss          00009080  000000008000a000  000000008000a000  0000a0a0  2**12
                  ALLOC
  6 .payload      00526330  0000000080200000  0000000080200000  00200000  2**21
                  CONTENTS, ALLOC, LOAD, READONLY, DATA
  7 .riscv.attributes 00000035  0000000000000000  0000000000000000  00726330  2**0
                  CONTENTS, READONLY
SYMBOL TABLE:
0000000080000000 l    d  .text	0000000000000000 .text
0000000080006358 l    d  .rodata	0000000000000000 .rodata
0000000080008000 l    d  .htif	0000000000000000 .htif
0000000080009000 l    d  .data	0000000000000000 .data
000000008000909c l    d  .sdata	0000000000000000 .sdata
000000008000a000 l    d  .bss	0000000000000000 .bss
0000000080200000 l    d  .payload	0000000000000000 .payload
0000000000000000 l    d  .riscv.attributes	0000000000000000 .riscv.attributes
0000000000000000 l    df *ABS*	0000000000000000 mentry.o
0000000080009000 l       .data	0000000000000000 trap_table
00000000800001f0 l       .text	0000000000000000 __trap_from_machine_mode
00000000800001f8 l       .text	0000000000000000 do_reset
0000000080000004 l       .text	0000000000000000 trap_vector
0000000080000134 l       .text	0000000000000000 restore_mscratch
0000000080000138 l       .text	0000000000000000 restore_regs
000000008000b000 l       .bss	0000000000000000 stacks
0000000000000000 l    df *ABS*	0000000000000000 bbl.c
0000000080013000 l     O .bss	0000000000000008 entry_point
0000000000000000 l    df *ABS*	0000000000000000 logo.c
0000000000000000 l    df *ABS*	0000000000000000 fdt.c
0000000080000470 l     F .text	0000000000000016 hart_open
0000000080000486 l     F .text	0000000000000022 hart_close
00000000800004a8 l     F .text	000000000000000e clint_open
00000000800004b6 l     F .text	000000000000000e plic_open
00000000800004c4 l     F .text	0000000000000066 plic_redact
000000008000052a l     F .text	0000000000000008 compat_open
0000000080000532 l     F .text	000000000000001c compat_close
000000008000054e l     F .text	0000000000000014 chosen_close
0000000080000562 l     F .text	0000000000000010 hart_filter_open
0000000080000572 l     F .text	000000000000015e clint_done
00000000800006d0 l     F .text	000000000000024c plic_done
000000008000091c l     F .text	0000000000000174 mem_done
0000000080000a90 l     F .text	0000000000000066 mem_prop
0000000080000af6 l     F .text	0000000000000028 chosen_open
0000000080000b1e l     F .text	00000000000001a4 hart_prop
0000000080000cc2 l     F .text	00000000000000f0 hart_filter_prop
0000000080000db2 l     F .text	0000000000000252 fdt_scan_helper
0000000080001004 l     F .text	000000000000000a mem_open
000000008000100e l     F .text	00000000000000b2 hart_done
00000000800010c0 l     F .text	000000000000011c hart_filter_done
00000000800011dc l     F .text	0000000000000110 chosen_prop
0000000080001598 l     F .text	00000000000000e2 clint_prop
000000008000167a l     F .text	0000000000000122 plic_prop
000000008000179c l     F .text	000000000000003c compat_prop
000000008000a000 l     O .bss	0000000000000020 hart_phandles
0000000000000000 l    df *ABS*	0000000000000000 mtrap.c
0000000080001a58 l     F .text	0000000000000100 send_ipi_many
0000000080001b58 l     F .text	0000000000000040 mcall_console_putchar
0000000000000000 l    df *ABS*	0000000000000000 minit.c
0000000080001e0c l     F .text	0000000000000136 hart_init
0000000080001f42 l     F .text	0000000000000064 hart_plic_init
0000000000000000 l    df *ABS*	0000000000000000 htif.c
0000000080002156 l     F .text	0000000000000010 htif_done
0000000080002166 l     F .text	0000000000000012 htif_open
0000000080002178 l     F .text	0000000000000096 __check_fromhost
000000008000220e l     F .text	000000000000003a htif_prop
0000000080013008 l     O .bss	0000000000000004 htif_lock
0000000000000000 l    df *ABS*	0000000000000000 uart.c
00000000800023d0 l     F .text	0000000000000020 uart_done
00000000800023f0 l     F .text	000000000000000a uart_open
00000000800023fa l     F .text	0000000000000076 uart_prop
0000000000000000 l    df *ABS*	0000000000000000 uart16550.c
00000000800024d6 l     F .text	00000000000000ae uart16550_done
000000008000909c l     O .sdata	0000000000000004 uart16550_clock
000000008001300c l     O .bss	0000000000000004 uart16550_reg_shift
0000000080002584 l     F .text	0000000000000020 uart16550_open
00000000800025a4 l     F .text	0000000000000112 uart16550_prop
0000000000000000 l    df *ABS*	0000000000000000 finisher.c
0000000080002740 l     F .text	000000000000001a finisher_done
000000008000275a l     F .text	000000000000000a finisher_open
0000000080002764 l     F .text	0000000000000076 finisher_prop
0000000000000000 l    df *ABS*	0000000000000000 emulation.c
0000000080002c36 l     F .text	0000000000000004 truly_illegal_insn.constprop.0
00000000800067d8 l       .rodata	0000000000000000 illegal_insn_trap_table
0000000000000000 l    df *ABS*	0000000000000000 fp_emulation.c
0000000080006878 l       .rodata	0000000000000000 fp_emulation_table
0000000000000000 l    df *ABS*	0000000000000000 misaligned_ldst.c
0000000000000000 l    df *ABS*	0000000000000000 f32_add.c
0000000000000000 l    df *ABS*	0000000000000000 f32_div.c
0000000000000000 l    df *ABS*	0000000000000000 f32_eq.c
0000000000000000 l    df *ABS*	0000000000000000 f32_lt.c
0000000000000000 l    df *ABS*	0000000000000000 f32_lt_quiet.c
0000000000000000 l    df *ABS*	0000000000000000 f32_mul.c
0000000000000000 l    df *ABS*	0000000000000000 f32_sqrt.c
0000000000000000 l    df *ABS*	0000000000000000 f32_to_f64.c
0000000000000000 l    df *ABS*	0000000000000000 f32_classify.c
0000000000000000 l    df *ABS*	0000000000000000 f64_add.c
0000000000000000 l    df *ABS*	0000000000000000 f64_div.c
0000000000000000 l    df *ABS*	0000000000000000 f64_eq.c
0000000000000000 l    df *ABS*	0000000000000000 f64_lt.c
0000000000000000 l    df *ABS*	0000000000000000 f64_lt_quiet.c
0000000000000000 l    df *ABS*	0000000000000000 f64_mul.c
0000000000000000 l    df *ABS*	0000000000000000 f64_sqrt.c
0000000000000000 l    df *ABS*	0000000000000000 f64_to_f32.c
0000000000000000 l    df *ABS*	0000000000000000 f64_to_ui64.c
0000000000000000 l    df *ABS*	0000000000000000 f64_classify.c
0000000000000000 l    df *ABS*	0000000000000000 s_addMagsF32.c
0000000000000000 l    df *ABS*	0000000000000000 s_addMagsF64.c
0000000000000000 l    df *ABS*	0000000000000000 s_approxRecip32_1.c
0000000000000000 l    df *ABS*	0000000000000000 s_approxRecipSqrt32_1.c
0000000000000000 l    df *ABS*	0000000000000000 s_mul64To128M.c
0000000000000000 l    df *ABS*	0000000000000000 s_mulAddF32.c
0000000000000000 l    df *ABS*	0000000000000000 s_mulAddF64.c
0000000000000000 l    df *ABS*	0000000000000000 s_negXM.c
0000000000000000 l    df *ABS*	0000000000000000 s_normSubnormalF32Sig.c
0000000000000000 l    df *ABS*	0000000000000000 s_normSubnormalF64Sig.c
0000000000000000 l    df *ABS*	0000000000000000 s_roundMToUI64.c
0000000000000000 l    df *ABS*	0000000000000000 s_roundPackToF32.c
0000000000000000 l    df *ABS*	0000000000000000 s_roundPackToF64.c
0000000000000000 l    df *ABS*	0000000000000000 s_shiftLeftM.c
0000000000000000 l    df *ABS*	0000000000000000 s_shiftRightJam32.c
0000000000000000 l    df *ABS*	0000000000000000 s_shiftRightJam64.c
0000000000000000 l    df *ABS*	0000000000000000 s_shiftRightJamM.c
0000000000000000 l    df *ABS*	0000000000000000 s_shortShiftLeftM.c
0000000000000000 l    df *ABS*	0000000000000000 s_shortShiftRightM.c
0000000000000000 l    df *ABS*	0000000000000000 s_shortShiftRightJam64.c
0000000000000000 l    df *ABS*	0000000000000000 s_shortShiftRightJamM.c
0000000000000000 l    df *ABS*	0000000000000000 s_subM.c
0000000000000000 l    df *ABS*	0000000000000000 s_subMagsF32.c
0000000000000000 l    df *ABS*	0000000000000000 s_subMagsF64.c
0000000000000000 l    df *ABS*	0000000000000000 ui64_to_f64.c
0000000000000000 l    df *ABS*	0000000000000000 s_propagateNaNF32UI.c
0000000000000000 l    df *ABS*	0000000000000000 s_propagateNaNF64UI.c
0000000000000000 l    df *ABS*	0000000000000000 s_addM.c
0000000000000000 l    df *ABS*	0000000000000000 s_approxRecip_1Ks.c
0000000000000000 l    df *ABS*	0000000000000000 s_approxRecipSqrt_1Ks.c
0000000000000000 l    df *ABS*	0000000000000000 s_countLeadingZeros32.c
0000000000000000 l    df *ABS*	0000000000000000 s_countLeadingZeros64.c
0000000000000000 l    df *ABS*	0000000000000000 s_countLeadingZeros8.c
0000000000000000 l    df *ABS*	0000000000000000 s_normRoundPackToF32.c
0000000000000000 l    df *ABS*	0000000000000000 s_normRoundPackToF64.c
0000000000000000 l    df *ABS*	0000000000000000 snprintf.c
0000000000000000 l    df *ABS*	0000000000000000 string.c
00000000800018c2 g     F .text	0000000000000062 query_clint
0000000080003f18 g     F .text	0000000000000092 f32_lt_quiet
00000000800062da g     F .text	0000000000000012 strcpy
00000000800037d8 g     F .text	0000000000000140 emulate_fmadd
0000000080013078 g     O .bss	0000000000000008 finisher
00000000800002e8 g     F .text	00000000000000e0 boot_other_hart
0000000080006978 g     O .rodata	0000000000000100 softfloat_countLeadingZeros8
0000000080009000 g       .data	0000000000000000 _fdata
00000000800049c8 g     F .text	00000000000000c0 f64_classify
00000000800040ee g     F .text	00000000000000f0 f32_sqrt
0000000080001d34 g     F .text	00000000000000d6 mcall_trap
0000000080005ef2 g     F .text	0000000000000068 softfloat_normRoundPackToF64
0000000080013020 g     O .bss	0000000000000008 plic_ndevs
00000000800057b2 g     F .text	0000000000000022 softfloat_shiftRightJam32
0000000080004a88 g     F .text	000000000000013a softfloat_addMagsF32
00000000800061ec g     F .text	0000000000000020 snprintf
0000000080003aec g     F .text	00000000000001b6 misaligned_store_trap
00000000800062ec g     F .text	000000000000006c atol
0000000080002f7c g     F .text	00000000000000a8 emulate_fmul
000000008000551e g     F .text	0000000000000108 softfloat_roundPackToF32
0000000080008000 g       .htif	0000000000000000 _etext
0000000080001538 g     F .text	0000000000000060 fdt_string_list_index
0000000080005dd0 g     F .text	0000000000000042 softfloat_addM
00000000800020c0 g     F .text	000000000000001c init_other_hart
00000000800044de g     F .text	0000000000000076 f64_eq
00000000800019d0 g     F .text	000000000000004c query_chosen
0000000080001502 g     F .text	0000000000000036 fdt_get_value
0000000080002936 g       .text	0000000000000000 put_f32_reg
000000008000620c g     F .text	0000000000000050 memcpy
0000000080005a3a g     F .text	0000000000000188 softfloat_subMagsF32
000000008000270c g     F .text	0000000000000034 query_uart16550
00000000800030cc g     F .text	0000000000000084 emulate_fsqrt
0000000080004dd4 g     F .text	0000000000000050 softfloat_mul64To128M
0000000080004d38 g     F .text	000000000000009c softfloat_approxRecipSqrt32_1
0000000080001492 g     F .text	0000000000000070 fdt_get_size
00000000800022bc g     F .text	0000000000000070 htif_syscall
0000000080013028 g     O .bss	0000000000000008 plic_priorities
0000000080005f5a g     F .text	0000000000000292 vsnprintf
00000000800090a0 g       .bss	0000000000000000 _bss_start
0000000080005626 g     F .text	0000000000000106 softfloat_roundPackToF64
0000000080013070 g     O .bss	0000000000000008 uart16550
0000000080000000 g       *ABS*	0000000000000000 MEM_START
0000000080004cc6 g     F .text	0000000000000072 softfloat_approxRecip32_1
0000000080001990 g     F .text	0000000000000040 filter_compat
0000000080013030 g     O .bss	0000000000000008 mem_size
0000000080001fdc g     F .text	00000000000000e4 init_first_hart
0000000080005d8a g     F .text	0000000000000046 softfloat_propagateNaNF64UI
0000000080003774 g     F .text	0000000000000064 emulate_fmv_fi
0000000080000000 g       .text	0000000000000000 reset_vector
0000000080003faa g     F .text	0000000000000144 f32_mul
0000000080005bc2 g     F .text	0000000000000162 softfloat_subMagsF64
0000000080006918 g     O .rodata	0000000000000020 softfloat_approxRecip_1k0s
00000000800033d8 g     F .text	00000000000000ca emulate_fcvt_fi
0000000080013058 g     O .bss	0000000000000008 htif
00000000800020dc g     F .text	000000000000001e setup_pmp
0000000080002488 g     F .text	000000000000001a uart_getchar
0000000080005e44 g     F .text	0000000000000044 softfloat_countLeadingZeros64
000000008000195a g     F .text	0000000000000036 filter_plic
0000000080004898 g     F .text	000000000000007e f64_to_f32
0000000080003150 g     F .text	00000000000000d4 emulate_fsgnj
00000000800027da g     F .text	0000000000000028 finisher_exit
000000008000541e g     F .text	000000000000003c softfloat_negXM
0000000080004e24 g     F .text	0000000000000282 softfloat_mulAddF32
0000000080003918 g     F .text	00000000000001d4 misaligned_load_trap
0000000080002f72 g     F .text	0000000000000004 emulate_fadd
0000000080000000 g       .text	0000000000000000 _ftext
0000000080006958 g     O .rodata	0000000000000020 softfloat_approxRecipSqrt_1k0s
0000000080001cb8 g     F .text	000000000000007c trap_from_machine_mode
0000000080013038 g     O .bss	0000000000000008 kernel_end
00000000800058c0 g     F .text	000000000000004e softfloat_shortShiftLeftM
00000000800012ec g     F .text	00000000000000b6 fdt_scan
0000000080013010 g     O .bss	0000000000000008 disabled_hart_mask
0000000080002a36 g       .text	0000000000000000 get_f64_reg
00000000800045b6 g     F .text	0000000000000094 f64_lt_quiet
00000000800054a6 g     F .text	0000000000000078 softfloat_roundMToUI64
0000000080005e88 g     F .text	000000000000006a softfloat_normRoundPackToF32
0000000080004bc2 g     F .text	0000000000000104 softfloat_addMagsF64
0000000080001c4e g     F .text	000000000000000c pmp_trap
0000000080001c5a g     F .text	0000000000000036 poweroff
0000000080001c0e g     F .text	0000000000000040 redirect_trap
00000000800057f6 g     F .text	00000000000000ca softfloat_shiftRightJamM
00000000800020fa g     F .text	0000000000000034 enter_supervisor_mode
000000008000545a g     F .text	0000000000000028 softfloat_normSubnormalF32Sig
0000000080002802 g     F .text	0000000000000034 query_finisher
0000000080001bea g     F .text	0000000000000024 printm
0000000080001fa6 g     F .text	0000000000000036 hls_init
0000000080005d50 g     F .text	000000000000003a softfloat_propagateNaNF32UI
0000000080001844 g     F .text	000000000000007e query_harts
00000000800034a2 g     F .text	0000000000000122 emulate_fcvt_if
0000000080726330 g       .payload	0000000000000000 _payload_end
000000008000625c g     F .text	0000000000000046 memset
000000008000232c g     F .text	000000000000005c htif_console_putchar
0000000080002ccc g     F .text	00000000000001b0 emulate_system_opcode
000000008000431e g     F .text	000000000000001e f64_add
0000000080002eba g     F .text	00000000000000b8 emulate_any_fadd
00000000800036b4 g     F .text	00000000000000c0 emulate_fmv_if
000000008000464a g     F .text	000000000000012e f64_mul
0000000080002388 g     F .text	0000000000000016 htif_poweroff
0000000080003e3c g     F .text	0000000000000074 f32_eq
000000008000212e g     F .text	0000000000000028 enter_machine_mode
00000000800050a6 g     F .text	0000000000000378 softfloat_mulAddF64
0000000080013040 g     O .bss	0000000000000008 mtime
0000000080005482 g     F .text	0000000000000024 softfloat_normSubnormalF64Sig
00000000800062bc g     F .text	000000000000001e strcmp
0000000080004260 g     F .text	00000000000000be f32_classify
0000000080001924 g     F .text	0000000000000036 query_plic
0000000080200000 g       .payload	0000000000000000 _payload_start
0000000080005960 g     F .text	0000000000000018 softfloat_shortShiftRightJam64
0000000080001c90 g     F .text	0000000000000028 bad_trap
00000000800057d4 g     F .text	0000000000000022 softfloat_shiftRightJam64
00000000800035c4 g     F .text	00000000000000f0 emulate_fcmp
0000000080004916 g     F .text	00000000000000b2 f64_to_ui64
00000000800017d8 g     F .text	000000000000006c query_mem
0000000080000464 g     F .text	000000000000000c print_logo
00000000800026de g     F .text	000000000000002e uart16550_getchar
00000000800024a2 g     F .text	0000000000000034 query_uart
00000000800068f8 g     O .rodata	0000000000000020 softfloat_approxRecip_1k1s
000000008000239e g     F .text	0000000000000032 query_htif
0000000080006938 g     O .rodata	0000000000000020 softfloat_approxRecipSqrt_1k1s
0000000080004778 g     F .text	0000000000000120 f64_sqrt
0000000080002836 g       .text	0000000000000000 get_f32_reg
0000000080004554 g     F .text	0000000000000062 f64_lt
00000000800026b6 g     F .text	0000000000000028 uart16550_putchar
000000008000572c g     F .text	0000000000000086 softfloat_shiftLeftM
0000000080005978 g     F .text	0000000000000068 softfloat_shortShiftRightJamM
0000000080001422 g     F .text	0000000000000070 fdt_get_address
0000000080002f76 g     F .text	0000000000000006 emulate_fsub
00000000800090a0 g       .bss	0000000000000000 _edata
0000000080003cc4 g     F .text	0000000000000178 f32_div
0000000080014000 g       .bss	0000000000000000 _end
0000000080008000 g     O .htif	0000000000000008 fromhost
00000000800013a2 g     F .text	0000000000000080 fdt_size
0000000080003eb0 g     F .text	0000000000000068 f32_lt
0000000080008008 g     O .htif	0000000000000008 tohost
0000000080003ca2 g     F .text	0000000000000022 f32_add
0000000080013068 g     O .bss	0000000000000008 uart
000000008000590e g     F .text	0000000000000052 softfloat_shortShiftRightM
0000000080005e12 g     F .text	0000000000000032 softfloat_countLeadingZeros32
00000000800041de g     F .text	0000000000000082 f32_to_f64
0000000080013018 g     O .bss	0000000000000008 hart_mask
0000000080003024 g     F .text	00000000000000a8 emulate_fdiv
00000000800062a2 g     F .text	000000000000001a strlen
0000000080013048 g     O .bss	0000000000000008 root_page_table
000000008000433c g     F .text	00000000000001a2 f64_div
00000000800059e0 g     F .text	000000000000005a softfloat_subM
0000000080002cc2 g     F .text	000000000000000a truly_illegal_insn
0000000080002e7c g     F .text	000000000000003e emulate_fp
0000000080013050 g     O .bss	0000000000000008 kernel_start
0000000080002c3a g     F .text	0000000000000088 illegal_insn_trap
00000000800001d8 g       .text	0000000000000000 __redirect_trap
00000000800003c8 g     F .text	000000000000009c boot_loader
00000000800090a0 g       .bss	0000000000000000 _fbss
0000000080001bba g     F .text	0000000000000030 vprintm
0000000080001b98 g     F .text	0000000000000022 putstring
0000000080002248 g     F .text	0000000000000074 htif_console_getchar
000000008000334e g     F .text	000000000000008a emulate_fcvt_ff
0000000080002470 g     F .text	0000000000000018 uart_putchar
0000000080001a1c g     F .text	000000000000003c filter_harts
0000000080003224 g     F .text	000000000000012a emulate_fmin
0000000080006358 g       .rodata	0000000000000000 logo
0000000080005d24 g     F .text	000000000000002c ui64_to_f64
0000000080002b36 g       .text	0000000000000000 put_f64_reg
0000000080013060 g     O .bss	0000000000000004 htif_console_buf



Disassembly of section .text:

0000000080000000 <_ftext>:
    80000000:	1f80006f          	j	800001f8 <do_reset>

0000000080000004 <trap_vector>:
    80000004:	34011173          	csrrw	sp,mscratch,sp
    80000008:	1a010863          	beqz	sp,800001b8 <restore_regs+0x80>
    8000000c:	04a13823          	sd	a0,80(sp)
    80000010:	04b13c23          	sd	a1,88(sp)
    80000014:	342025f3          	csrr	a1,mcause
    80000018:	0805d263          	bgez	a1,8000009c <trap_vector+0x98>
    8000001c:	00159593          	slli	a1,a1,0x1
    80000020:	00e00513          	li	a0,14
    80000024:	02b51263          	bne	a0,a1,80000048 <trap_vector+0x44>
    80000028:	08000513          	li	a0,128
    8000002c:	30453073          	csrc	mie,a0
    80000030:	02000513          	li	a0,32
    80000034:	34452073          	csrs	mip,a0
    80000038:	05013503          	ld	a0,80(sp)
    8000003c:	05813583          	ld	a1,88(sp)
    80000040:	34011173          	csrrw	sp,mscratch,sp
    80000044:	30200073          	mret
    80000048:	00600513          	li	a0,6
    8000004c:	18b51263          	bne	a0,a1,800001d0 <restore_regs+0x98>
    80000050:	10013503          	ld	a0,256(sp)
    80000054:	00052023          	sw	zero,0(a0)
    80000058:	0ff0000f          	fence
    8000005c:	10810513          	addi	a0,sp,264
    80000060:	0805252f          	amoswap.w	a0,zero,(a0)
    80000064:	00157593          	andi	a1,a0,1
    80000068:	00058463          	beqz	a1,80000070 <trap_vector+0x6c>
    8000006c:	34416073          	csrsi	mip,2
    80000070:	00257593          	andi	a1,a0,2
    80000074:	00058463          	beqz	a1,8000007c <trap_vector+0x78>
    80000078:	0000100f          	fence.i
    8000007c:	00457593          	andi	a1,a0,4
    80000080:	00058463          	beqz	a1,80000088 <trap_vector+0x84>
    80000084:	12000073          	sfence.vma
    80000088:	00857593          	andi	a1,a0,8
    8000008c:	00058663          	beqz	a1,80000098 <trap_vector+0x94>
    80000090:	10500073          	wfi
    80000094:	ff5ff06f          	j	80000088 <trap_vector+0x84>
    80000098:	fa1ff06f          	j	80000038 <trap_vector+0x34>
    8000009c:	00113423          	sd	ra,8(sp)
    800000a0:	00313c23          	sd	gp,24(sp)
    800000a4:	02413023          	sd	tp,32(sp)
    800000a8:	02513423          	sd	t0,40(sp)
    800000ac:	00009297          	auipc	t0,0x9
    800000b0:	02613823          	sd	t1,48(sp)
    800000b4:	00359313          	slli	t1,a1,0x3
    800000b8:	02713c23          	sd	t2,56(sp)
    800000bc:	00628333          	add	t1,t0,t1
    800000c0:	04813023          	sd	s0,64(sp)
    800000c4:	f5433303          	ld	t1,-172(t1)
    800000c8:	04913423          	sd	s1,72(sp)
    800000cc:	00010513          	mv	a0,sp
    800000d0:	06c13023          	sd	a2,96(sp)
    800000d4:	34102673          	csrr	a2,mepc
    800000d8:	06d13423          	sd	a3,104(sp)
    800000dc:	340012f3          	csrrw	t0,mscratch,zero
    800000e0:	06e13823          	sd	a4,112(sp)
    800000e4:	06f13c23          	sd	a5,120(sp)
    800000e8:	09013023          	sd	a6,128(sp)
    800000ec:	09113423          	sd	a7,136(sp)
    800000f0:	09213823          	sd	s2,144(sp)
    800000f4:	09313c23          	sd	s3,152(sp)
    800000f8:	0b413023          	sd	s4,160(sp)
    800000fc:	0b513423          	sd	s5,168(sp)
    80000100:	0b613823          	sd	s6,176(sp)
    80000104:	0b713c23          	sd	s7,184(sp)
    80000108:	0d813023          	sd	s8,192(sp)
    8000010c:	0d913423          	sd	s9,200(sp)
    80000110:	0da13823          	sd	s10,208(sp)
    80000114:	0db13c23          	sd	s11,216(sp)
    80000118:	0fc13023          	sd	t3,224(sp)
    8000011c:	0fd13423          	sd	t4,232(sp)
    80000120:	0fe13823          	sd	t5,240(sp)
    80000124:	0ff13c23          	sd	t6,248(sp)
    80000128:	00513823          	sd	t0,16(sp)
    8000012c:	00013023          	sd	zero,0(sp)
    80000130:	000300e7          	jalr	t1

0000000080000134 <restore_mscratch>:
    80000134:	34011073          	csrw	mscratch,sp

0000000080000138 <restore_regs>:
    80000138:	00813083          	ld	ra,8(sp)
    8000013c:	01813183          	ld	gp,24(sp)
    80000140:	02013203          	ld	tp,32(sp)
    80000144:	02813283          	ld	t0,40(sp)
    80000148:	03013303          	ld	t1,48(sp)
    8000014c:	03813383          	ld	t2,56(sp)
    80000150:	04013403          	ld	s0,64(sp)
    80000154:	04813483          	ld	s1,72(sp)
    80000158:	05013503          	ld	a0,80(sp)
    8000015c:	05813583          	ld	a1,88(sp)
    80000160:	06013603          	ld	a2,96(sp)
    80000164:	06813683          	ld	a3,104(sp)
    80000168:	07013703          	ld	a4,112(sp)
    8000016c:	07813783          	ld	a5,120(sp)
    80000170:	08013803          	ld	a6,128(sp)
    80000174:	08813883          	ld	a7,136(sp)
    80000178:	09013903          	ld	s2,144(sp)
    8000017c:	09813983          	ld	s3,152(sp)
    80000180:	0a013a03          	ld	s4,160(sp)
    80000184:	0a813a83          	ld	s5,168(sp)
    80000188:	0b013b03          	ld	s6,176(sp)
    8000018c:	0b813b83          	ld	s7,184(sp)
    80000190:	0c013c03          	ld	s8,192(sp)
    80000194:	0c813c83          	ld	s9,200(sp)
    80000198:	0d013d03          	ld	s10,208(sp)
    8000019c:	0d813d83          	ld	s11,216(sp)
    800001a0:	0e013e03          	ld	t3,224(sp)
    800001a4:	0e813e83          	ld	t4,232(sp)
    800001a8:	0f013f03          	ld	t5,240(sp)
    800001ac:	0f813f83          	ld	t6,248(sp)
    800001b0:	01013103          	ld	sp,16(sp)
    800001b4:	30200073          	mret
    800001b8:	34002173          	csrr	sp,mscratch
    800001bc:	f0010113          	addi	sp,sp,-256
    800001c0:	04a13823          	sd	a0,80(sp)
    800001c4:	04b13c23          	sd	a1,88(sp)
    800001c8:	00d00593          	li	a1,13
    800001cc:	ed1ff06f          	j	8000009c <trap_vector+0x98>
    800001d0:	00000593          	li	a1,0
    800001d4:	ec9ff06f          	j	8000009c <trap_vector+0x98>

00000000800001d8 <__redirect_trap>:
    800001d8:	000012b7          	lui	t0,0x1
    800001dc:	00510133          	add	sp,sp,t0
    800001e0:	405002b3          	neg	t0,t0
    800001e4:	00517133          	and	sp,sp,t0
    800001e8:	ec010113          	addi	sp,sp,-320
    800001ec:	f49ff06f          	j	80000134 <restore_mscratch>

00000000800001f0 <__trap_from_machine_mode>:
    800001f0:	2c9010ef          	jal	ra,80001cb8 <trap_from_machine_mode>
    800001f4:	f45ff06f          	j	80000138 <restore_regs>

00000000800001f8 <do_reset>:
    800001f8:	00000093          	li	ra,0
    800001fc:	00000113          	li	sp,0
    80000200:	00000193          	li	gp,0
    80000204:	00000213          	li	tp,0
    80000208:	00000293          	li	t0,0
    8000020c:	00000313          	li	t1,0
    80000210:	00000393          	li	t2,0
    80000214:	00000413          	li	s0,0
    80000218:	00000493          	li	s1,0
    8000021c:	00000613          	li	a2,0
    80000220:	00000693          	li	a3,0
    80000224:	00000713          	li	a4,0
    80000228:	00000793          	li	a5,0
    8000022c:	00000813          	li	a6,0
    80000230:	00000893          	li	a7,0
    80000234:	00000913          	li	s2,0
    80000238:	00000993          	li	s3,0
    8000023c:	00000a13          	li	s4,0
    80000240:	00000a93          	li	s5,0
    80000244:	00000b13          	li	s6,0
    80000248:	00000b93          	li	s7,0
    8000024c:	00000c13          	li	s8,0
    80000250:	00000c93          	li	s9,0
    80000254:	00000d13          	li	s10,0
    80000258:	00000d93          	li	s11,0
    8000025c:	00000e13          	li	t3,0
    80000260:	00000e93          	li	t4,0
    80000264:	00000f13          	li	t5,0
    80000268:	00000f93          	li	t6,0
    8000026c:	34001073          	csrw	mscratch,zero
    80000270:	00000297          	auipc	t0,0x0
    80000274:	d9428293          	addi	t0,t0,-620 # 80000004 <trap_vector>
    80000278:	30529073          	csrw	mtvec,t0
    8000027c:	30502373          	csrr	t1,mtvec
    80000280:	00629063          	bne	t0,t1,80000280 <do_reset+0x88>
    80000284:	0000c117          	auipc	sp,0xc
    80000288:	c3c10113          	addi	sp,sp,-964 # 8000bec0 <stacks+0xec0>
    8000028c:	f14026f3          	csrr	a3,mhartid
    80000290:	00c69613          	slli	a2,a3,0xc
    80000294:	00c10133          	add	sp,sp,a2
    80000298:	00069463          	bnez	a3,800002a0 <do_reset+0xa8>
    8000029c:	5410106f          	j	80001fdc <init_first_hart>
    800002a0:	00800613          	li	a2,8
    800002a4:	30461073          	csrw	mie,a2
    800002a8:	10500073          	wfi
    800002ac:	00013717          	auipc	a4,0x13
    800002b0:	d6470713          	addi	a4,a4,-668 # 80013010 <disabled_hart_mask>
    800002b4:	00073703          	ld	a4,0(a4)
    800002b8:	00d75733          	srl	a4,a4,a3
    800002bc:	00177713          	andi	a4,a4,1
    800002c0:	fe0714e3          	bnez	a4,800002a8 <do_reset+0xb0>
    800002c4:	34402673          	csrr	a2,mip
    800002c8:	00867613          	andi	a2,a2,8
    800002cc:	fc060ee3          	beqz	a2,800002a8 <do_reset+0xb0>
    800002d0:	0ff0000f          	fence
    800002d4:	00800613          	li	a2,8
    800002d8:	00c6f463          	bgeu	a3,a2,800002e0 <do_reset+0xe8>
    800002dc:	5e50106f          	j	800020c0 <init_other_hart>
    800002e0:	10500073          	wfi
    800002e4:	fc5ff06f          	j	800002a8 <do_reset+0xb0>

00000000800002e8 <boot_other_hart>:
    800002e8:	1101                	addi	sp,sp,-32
    800002ea:	ec06                	sd	ra,24(sp)
    800002ec:	e822                	sd	s0,16(sp)
    800002ee:	e426                	sd	s1,8(sp)
    800002f0:	00013797          	auipc	a5,0x13
    800002f4:	d1078793          	addi	a5,a5,-752 # 80013000 <entry_point>
    800002f8:	6380                	ld	s0,0(a5)
    800002fa:	0ff0000f          	fence
    800002fe:	dc6d                	beqz	s0,800002f8 <boot_other_hart+0x10>
    80000300:	f14024f3          	csrr	s1,mhartid
    80000304:	4705                	li	a4,1
    80000306:	0097173b          	sllw	a4,a4,s1
    8000030a:	00013797          	auipc	a5,0x13
    8000030e:	d067b783          	ld	a5,-762(a5) # 80013010 <disabled_hart_mask>
    80000312:	8f7d                	and	a4,a4,a5
    80000314:	c711                	beqz	a4,80000320 <boot_other_hart+0x38>
    80000316:	10500073          	wfi
    8000031a:	02004033          	div	zero,zero,zero
    8000031e:	bfe5                	j	80000316 <boot_other_hart+0x2e>
    80000320:	56fd                	li	a3,-1
    80000322:	87ba                	mv	a5,a4
    80000324:	88ba                	mv	a7,a4
    80000326:	883a                	mv	a6,a4
    80000328:	863a                	mv	a2,a4
    8000032a:	00000317          	auipc	t1,0x0
    8000032e:	02e30313          	addi	t1,t1,46 # 80000358 <boot_other_hart+0x70>
    80000332:	30531373          	csrrw	t1,mtvec,t1
    80000336:	3b069073          	csrw	pmpaddr0,a3
    8000033a:	3b0027f3          	csrr	a5,pmpaddr0
    8000033e:	3b169073          	csrw	pmpaddr1,a3
    80000342:	3b1028f3          	csrr	a7,pmpaddr1
    80000346:	3b269073          	csrw	pmpaddr2,a3
    8000034a:	3b202873          	csrr	a6,pmpaddr2
    8000034e:	3b369073          	csrw	pmpaddr3,a3
    80000352:	3b302673          	csrr	a2,pmpaddr3
    80000356:	0001                	nop
    80000358:	30531073          	csrw	mtvec,t1
    8000035c:	0117f7b3          	and	a5,a5,a7
    80000360:	0107f7b3          	and	a5,a5,a6
    80000364:	8ff1                	and	a5,a5,a2
    80000366:	cba9                	beqz	a5,800003b8 <boot_other_hart+0xd0>
    80000368:	00000797          	auipc	a5,0x0
    8000036c:	c9878793          	addi	a5,a5,-872 # 80000000 <_ftext>
    80000370:	00014617          	auipc	a2,0x14
    80000374:	c9060613          	addi	a2,a2,-880 # 80014000 <_end>
    80000378:	001f1837          	lui	a6,0x1f1
    8000037c:	8389                	srli	a5,a5,0x2
    8000037e:	8209                	srli	a2,a2,0x2
    80000380:	80080813          	addi	a6,a6,-2048 # 1f0800 <_ftext-0x7fe0f800>
    80000384:	3b079073          	csrw	pmpaddr0,a5
    80000388:	3b161073          	csrw	pmpaddr1,a2
    8000038c:	3b269073          	csrw	pmpaddr2,a3
    80000390:	3b371073          	csrw	pmpaddr3,a4
    80000394:	3a081073          	csrw	pmpcfg0,a6
    80000398:	00013797          	auipc	a5,0x13
    8000039c:	ca07b783          	ld	a5,-864(a5) # 80013038 <kernel_end>
    800003a0:	cf99                	beqz	a5,800003be <boot_other_hart+0xd6>
    800003a2:	00200737          	lui	a4,0x200
    800003a6:	177d                	addi	a4,a4,-1
    800003a8:	97ba                	add	a5,a5,a4
    800003aa:	ffe00637          	lui	a2,0xffe00
    800003ae:	8e7d                	and	a2,a2,a5
    800003b0:	85a6                	mv	a1,s1
    800003b2:	8522                	mv	a0,s0
    800003b4:	547010ef          	jal	ra,800020fa <enter_supervisor_mode>
    800003b8:	525010ef          	jal	ra,800020dc <setup_pmp>
    800003bc:	bff1                	j	80000398 <boot_other_hart+0xb0>
    800003be:	00726797          	auipc	a5,0x726
    800003c2:	f7278793          	addi	a5,a5,-142 # 80726330 <_payload_end>
    800003c6:	bff1                	j	800003a2 <boot_other_hart+0xba>

00000000800003c8 <boot_loader>:
    800003c8:	1101                	addi	sp,sp,-32
    800003ca:	e822                	sd	s0,16(sp)
    800003cc:	e426                	sd	s1,8(sp)
    800003ce:	00013797          	auipc	a5,0x13
    800003d2:	c6a7b783          	ld	a5,-918(a5) # 80013038 <kernel_end>
    800003d6:	ec06                	sd	ra,24(sp)
    800003d8:	84aa                	mv	s1,a0
    800003da:	843e                	mv	s0,a5
    800003dc:	cbb5                	beqz	a5,80000450 <boot_loader+0x88>
    800003de:	002007b7          	lui	a5,0x200
    800003e2:	17fd                	addi	a5,a5,-1
    800003e4:	943e                	add	s0,s0,a5
    800003e6:	8526                	mv	a0,s1
    800003e8:	ffe007b7          	lui	a5,0xffe00
    800003ec:	8c7d                	and	s0,s0,a5
    800003ee:	7b5000ef          	jal	ra,800013a2 <fdt_size>
    800003f2:	02051613          	slli	a2,a0,0x20
    800003f6:	9201                	srli	a2,a2,0x20
    800003f8:	85a6                	mv	a1,s1
    800003fa:	8522                	mv	a0,s0
    800003fc:	611050ef          	jal	ra,8000620c <memcpy>
    80000400:	00013597          	auipc	a1,0x13
    80000404:	c1058593          	addi	a1,a1,-1008 # 80013010 <disabled_hart_mask>
    80000408:	8522                	mv	a0,s0
    8000040a:	612010ef          	jal	ra,80001a1c <filter_harts>
    8000040e:	8522                	mv	a0,s0
    80000410:	54a010ef          	jal	ra,8000195a <filter_plic>
    80000414:	8522                	mv	a0,s0
    80000416:	00006597          	auipc	a1,0x6
    8000041a:	6ba58593          	addi	a1,a1,1722 # 80006ad0 <softfloat_countLeadingZeros8+0x158>
    8000041e:	572010ef          	jal	ra,80001990 <filter_compat>
    80000422:	00006597          	auipc	a1,0x6
    80000426:	6be58593          	addi	a1,a1,1726 # 80006ae0 <softfloat_countLeadingZeros8+0x168>
    8000042a:	8522                	mv	a0,s0
    8000042c:	564010ef          	jal	ra,80001990 <filter_compat>
    80000430:	034000ef          	jal	ra,80000464 <print_logo>
    80000434:	0ff0000f          	fence
    80000438:	00013797          	auipc	a5,0x13
    8000043c:	c187b783          	ld	a5,-1000(a5) # 80013050 <kernel_start>
    80000440:	cf89                	beqz	a5,8000045a <boot_loader+0x92>
    80000442:	4501                	li	a0,0
    80000444:	00013717          	auipc	a4,0x13
    80000448:	baf73e23          	sd	a5,-1092(a4) # 80013000 <entry_point>
    8000044c:	e9dff0ef          	jal	ra,800002e8 <boot_other_hart>
    80000450:	00726417          	auipc	s0,0x726
    80000454:	ee040413          	addi	s0,s0,-288 # 80726330 <_payload_end>
    80000458:	b759                	j	800003de <boot_loader+0x16>
    8000045a:	00200797          	auipc	a5,0x200
    8000045e:	ba678793          	addi	a5,a5,-1114 # 80200000 <_payload_start>
    80000462:	b7c5                	j	80000442 <boot_loader+0x7a>

0000000080000464 <print_logo>:
    80000464:	00006517          	auipc	a0,0x6
    80000468:	ef450513          	addi	a0,a0,-268 # 80006358 <logo>
    8000046c:	72c0106f          	j	80001b98 <putstring>

0000000080000470 <hart_open>:
    80000470:	619c                	ld	a5,0(a1)
    80000472:	c799                	beqz	a5,80000480 <hart_open+0x10>
    80000474:	699c                	ld	a5,16(a1)
    80000476:	c391                	beqz	a5,8000047a <hart_open+0xa>
    80000478:	8082                	ret
    8000047a:	0005bc23          	sd	zero,24(a1)
    8000047e:	8082                	ret
    80000480:	57fd                	li	a5,-1
    80000482:	c59c                	sw	a5,8(a1)
    80000484:	bfc5                	j	80000474 <hart_open+0x4>

0000000080000486 <hart_close>:
    80000486:	619c                	ld	a5,0(a1)
    80000488:	00a78763          	beq	a5,a0,80000496 <hart_close+0x10>
    8000048c:	699c                	ld	a5,16(a1)
    8000048e:	00a78963          	beq	a5,a0,800004a0 <hart_close+0x1a>
    80000492:	4501                	li	a0,0
    80000494:	8082                	ret
    80000496:	699c                	ld	a5,16(a1)
    80000498:	0005b023          	sd	zero,0(a1)
    8000049c:	fea79be3          	bne	a5,a0,80000492 <hart_close+0xc>
    800004a0:	0005b823          	sd	zero,16(a1)
    800004a4:	4501                	li	a0,0
    800004a6:	8082                	ret

00000000800004a8 <clint_open>:
    800004a8:	0005a023          	sw	zero,0(a1)
    800004ac:	0005b423          	sd	zero,8(a1)
    800004b0:	0005b823          	sd	zero,16(a1)
    800004b4:	8082                	ret

00000000800004b6 <plic_open>:
    800004b6:	0005a023          	sw	zero,0(a1)
    800004ba:	0005b423          	sd	zero,8(a1)
    800004be:	0005b823          	sd	zero,16(a1)
    800004c2:	8082                	ret

00000000800004c4 <plic_redact>:
    800004c4:	419c                	lw	a5,0(a1)
    800004c6:	c3ad                	beqz	a5,80000528 <plic_redact+0x64>
    800004c8:	4d9c                	lw	a5,24(a1)
    800004ca:	4705                	li	a4,1
    800004cc:	cdd8                	sw	a4,28(a1)
    800004ce:	41f7d61b          	sraiw	a2,a5,0x1f
    800004d2:	01e6561b          	srliw	a2,a2,0x1e
    800004d6:	9e3d                	addw	a2,a2,a5
    800004d8:	4026561b          	sraiw	a2,a2,0x2
    800004dc:	060a                	slli	a2,a2,0x2
    800004de:	6994                	ld	a3,16(a1)
    800004e0:	04c05463          	blez	a2,80000528 <plic_redact+0x64>
    800004e4:	ff010537          	lui	a0,0xff010
    800004e8:	00ff05b7          	lui	a1,0xff0
    800004ec:	9636                	add	a2,a2,a3
    800004ee:	f0050513          	addi	a0,a0,-256 # ffffffffff00ff00 <_payload_end+0xffffffff7e8e9bd0>
    800004f2:	0ff58593          	addi	a1,a1,255 # ff00ff <_ftext-0x7f00ff01>
    800004f6:	482d                	li	a6,11
    800004f8:	58fd                	li	a7,-1
    800004fa:	42d8                	lw	a4,4(a3)
    800004fc:	0087179b          	slliw	a5,a4,0x8
    80000500:	0087571b          	srliw	a4,a4,0x8
    80000504:	8f6d                	and	a4,a4,a1
    80000506:	8fe9                	and	a5,a5,a0
    80000508:	8fd9                	or	a5,a5,a4
    8000050a:	0107971b          	slliw	a4,a5,0x10
    8000050e:	0107d79b          	srliw	a5,a5,0x10
    80000512:	8fd9                	or	a5,a5,a4
    80000514:	2781                	sext.w	a5,a5
    80000516:	01079463          	bne	a5,a6,8000051e <plic_redact+0x5a>
    8000051a:	0116a223          	sw	a7,4(a3)
    8000051e:	06a1                	addi	a3,a3,8
    80000520:	40d607b3          	sub	a5,a2,a3
    80000524:	fcf04be3          	bgtz	a5,800004fa <plic_redact+0x36>
    80000528:	8082                	ret

000000008000052a <compat_open>:
    8000052a:	459c                	lw	a5,8(a1)
    8000052c:	2785                	addiw	a5,a5,1
    8000052e:	c59c                	sw	a5,8(a1)
    80000530:	8082                	ret

0000000080000532 <compat_close>:
    80000532:	459c                	lw	a5,8(a1)
    80000534:	45d8                	lw	a4,12(a1)
    80000536:	4501                	li	a0,0
    80000538:	fff7869b          	addiw	a3,a5,-1
    8000053c:	c594                	sw	a3,8(a1)
    8000053e:	00f70363          	beq	a4,a5,80000544 <compat_close+0x12>
    80000542:	8082                	ret
    80000544:	3e700793          	li	a5,999
    80000548:	c5dc                	sw	a5,12(a1)
    8000054a:	557d                	li	a0,-1
    8000054c:	8082                	ret

000000008000054e <chosen_close>:
    8000054e:	619c                	ld	a5,0(a1)
    80000550:	c399                	beqz	a5,80000556 <chosen_close+0x8>
    80000552:	00a78463          	beq	a5,a0,8000055a <chosen_close+0xc>
    80000556:	4501                	li	a0,0
    80000558:	8082                	ret
    8000055a:	0005b023          	sd	zero,0(a1)
    8000055e:	4501                	li	a0,0
    80000560:	8082                	ret

0000000080000562 <hart_filter_open>:
    80000562:	57fd                	li	a5,-1
    80000564:	1782                	slli	a5,a5,0x20
    80000566:	e19c                	sd	a5,0(a1)
    80000568:	0005b423          	sd	zero,8(a1)
    8000056c:	0005b823          	sd	zero,16(a1)
    80000570:	8082                	ret

0000000080000572 <clint_done>:
    80000572:	419c                	lw	a5,0(a1)
    80000574:	c3ed                	beqz	a5,80000656 <clint_done+0xe4>
    80000576:	0085bf03          	ld	t5,8(a1)
    8000057a:	1141                	addi	sp,sp,-16
    8000057c:	e406                	sd	ra,8(sp)
    8000057e:	120f0563          	beqz	t5,800006a8 <clint_done+0x136>
    80000582:	6988                	ld	a0,16(a1)
    80000584:	0e050e63          	beqz	a0,80000680 <clint_done+0x10e>
    80000588:	4d9c                	lw	a5,24(a1)
    8000058a:	00f7f813          	andi	a6,a5,15
    8000058e:	0e081963          	bnez	a6,80000680 <clint_done+0x10e>
    80000592:	4dd8                	lw	a4,28(a1)
    80000594:	e371                	bnez	a4,80000658 <clint_done+0xe6>
    80000596:	41f7d89b          	sraiw	a7,a5,0x1f
    8000059a:	01e8d89b          	srliw	a7,a7,0x1e
    8000059e:	00f888bb          	addw	a7,a7,a5
    800005a2:	67b1                	lui	a5,0xc
    800005a4:	17e1                	addi	a5,a5,-8
    800005a6:	4705                	li	a4,1
    800005a8:	4028d89b          	sraiw	a7,a7,0x2
    800005ac:	97fa                	add	a5,a5,t5
    800005ae:	cdd8                	sw	a4,28(a1)
    800005b0:	088a                	slli	a7,a7,0x2
    800005b2:	00013717          	auipc	a4,0x13
    800005b6:	a8f73723          	sd	a5,-1394(a4) # 80013040 <mtime>
    800005ba:	07105763          	blez	a7,80000628 <clint_done+0xb6>
    800005be:	6e85                	lui	t4,0x1
    800005c0:	9e8a                	add	t4,t4,sp
    800005c2:	77fd                	lui	a5,0xfffff
    800005c4:	ff010e37          	lui	t3,0xff010
    800005c8:	00ff0337          	lui	t1,0xff0
    800005cc:	6f91                	lui	t6,0x4
    800005ce:	00fefeb3          	and	t4,t4,a5
    800005d2:	98aa                	add	a7,a7,a0
    800005d4:	f00e0e13          	addi	t3,t3,-256 # ffffffffff00ff00 <_payload_end+0xffffffff7e8e9bd0>
    800005d8:	0ff30313          	addi	t1,t1,255 # ff00ff <_ftext-0x7f00ff01>
    800005dc:	45a1                	li	a1,8
    800005de:	9ffa                	add	t6,t6,t5
    800005e0:	f14022f3          	csrr	t0,mhartid
    800005e4:	4110                	lw	a2,0(a0)
    800005e6:	0000a717          	auipc	a4,0xa
    800005ea:	a1a70713          	addi	a4,a4,-1510 # 8000a000 <hart_phandles>
    800005ee:	4781                	li	a5,0
    800005f0:	0086169b          	slliw	a3,a2,0x8
    800005f4:	0086561b          	srliw	a2,a2,0x8
    800005f8:	00667633          	and	a2,a2,t1
    800005fc:	01c6f6b3          	and	a3,a3,t3
    80000600:	8ed1                	or	a3,a3,a2
    80000602:	0106961b          	slliw	a2,a3,0x10
    80000606:	0106d69b          	srliw	a3,a3,0x10
    8000060a:	8e55                	or	a2,a2,a3
    8000060c:	2601                	sext.w	a2,a2
    8000060e:	4314                	lw	a3,0(a4)
    80000610:	00c68f63          	beq	a3,a2,8000062e <clint_done+0xbc>
    80000614:	2785                	addiw	a5,a5,1
    80000616:	0711                	addi	a4,a4,4
    80000618:	feb79be3          	bne	a5,a1,8000060e <clint_done+0x9c>
    8000061c:	0541                	addi	a0,a0,16
    8000061e:	40a887b3          	sub	a5,a7,a0
    80000622:	2811                	addiw	a6,a6,4
    80000624:	fcf040e3          	bgtz	a5,800005e4 <clint_done+0x72>
    80000628:	60a2                	ld	ra,8(sp)
    8000062a:	0141                	addi	sp,sp,16
    8000062c:	8082                	ret
    8000062e:	405787b3          	sub	a5,a5,t0
    80000632:	07b2                	slli	a5,a5,0xc
    80000634:	0018171b          	slliw	a4,a6,0x1
    80000638:	fc078793          	addi	a5,a5,-64 # ffffffffffffefc0 <_payload_end+0xffffffff7f8d8c90>
    8000063c:	97f6                	add	a5,a5,t4
    8000063e:	01e806b3          	add	a3,a6,t5
    80000642:	977e                	add	a4,a4,t6
    80000644:	0541                	addi	a0,a0,16
    80000646:	e394                	sd	a3,0(a5)
    80000648:	eb98                	sd	a4,16(a5)
    8000064a:	40a887b3          	sub	a5,a7,a0
    8000064e:	2811                	addiw	a6,a6,4
    80000650:	f8f04ae3          	bgtz	a5,800005e4 <clint_done+0x72>
    80000654:	bfd1                	j	80000628 <clint_done+0xb6>
    80000656:	8082                	ret
    80000658:	00006517          	auipc	a0,0x6
    8000065c:	4c050513          	addi	a0,a0,1216 # 80006b18 <softfloat_countLeadingZeros8+0x1a0>
    80000660:	00006697          	auipc	a3,0x6
    80000664:	50868693          	addi	a3,a3,1288 # 80006b68 <softfloat_countLeadingZeros8+0x1f0>
    80000668:	15400613          	li	a2,340
    8000066c:	00006597          	auipc	a1,0x6
    80000670:	49458593          	addi	a1,a1,1172 # 80006b00 <softfloat_countLeadingZeros8+0x188>
    80000674:	576010ef          	jal	ra,80001bea <printm>
    80000678:	6541                	lui	a0,0x10
    8000067a:	157d                	addi	a0,a0,-1
    8000067c:	5de010ef          	jal	ra,80001c5a <poweroff>
    80000680:	00006517          	auipc	a0,0x6
    80000684:	49850513          	addi	a0,a0,1176 # 80006b18 <softfloat_countLeadingZeros8+0x1a0>
    80000688:	00006697          	auipc	a3,0x6
    8000068c:	4b068693          	addi	a3,a3,1200 # 80006b38 <softfloat_countLeadingZeros8+0x1c0>
    80000690:	15300613          	li	a2,339
    80000694:	00006597          	auipc	a1,0x6
    80000698:	46c58593          	addi	a1,a1,1132 # 80006b00 <softfloat_countLeadingZeros8+0x188>
    8000069c:	54e010ef          	jal	ra,80001bea <printm>
    800006a0:	6541                	lui	a0,0x10
    800006a2:	157d                	addi	a0,a0,-1
    800006a4:	5b6010ef          	jal	ra,80001c5a <poweroff>
    800006a8:	00006517          	auipc	a0,0x6
    800006ac:	47050513          	addi	a0,a0,1136 # 80006b18 <softfloat_countLeadingZeros8+0x1a0>
    800006b0:	00006697          	auipc	a3,0x6
    800006b4:	44068693          	addi	a3,a3,1088 # 80006af0 <softfloat_countLeadingZeros8+0x178>
    800006b8:	15200613          	li	a2,338
    800006bc:	00006597          	auipc	a1,0x6
    800006c0:	44458593          	addi	a1,a1,1092 # 80006b00 <softfloat_countLeadingZeros8+0x188>
    800006c4:	526010ef          	jal	ra,80001bea <printm>
    800006c8:	6541                	lui	a0,0x10
    800006ca:	157d                	addi	a0,a0,-1
    800006cc:	58e010ef          	jal	ra,80001c5a <poweroff>

00000000800006d0 <plic_done>:
    800006d0:	419c                	lw	a5,0(a1)
    800006d2:	1a078463          	beqz	a5,8000087a <plic_done+0x1aa>
    800006d6:	6594                	ld	a3,8(a1)
    800006d8:	715d                	addi	sp,sp,-80
    800006da:	f052                	sd	s4,32(sp)
    800006dc:	e486                	sd	ra,72(sp)
    800006de:	e0a2                	sd	s0,64(sp)
    800006e0:	fc26                	sd	s1,56(sp)
    800006e2:	f84a                	sd	s2,48(sp)
    800006e4:	f44e                	sd	s3,40(sp)
    800006e6:	ec56                	sd	s5,24(sp)
    800006e8:	e85a                	sd	s6,16(sp)
    800006ea:	e45e                	sd	s7,8(sp)
    800006ec:	e062                	sd	s8,0(sp)
    800006ee:	8a2e                	mv	s4,a1
    800006f0:	20068263          	beqz	a3,800008f4 <plic_done+0x224>
    800006f4:	6980                	ld	s0,16(a1)
    800006f6:	1c040b63          	beqz	s0,800008cc <plic_done+0x1fc>
    800006fa:	4d9c                	lw	a5,24(a1)
    800006fc:	0077f713          	andi	a4,a5,7
    80000700:	1c071663          	bnez	a4,800008cc <plic_done+0x1fc>
    80000704:	5198                	lw	a4,32(a1)
    80000706:	3ff00613          	li	a2,1023
    8000070a:	18e66d63          	bltu	a2,a4,800008a4 <plic_done+0x1d4>
    8000070e:	4dd0                	lw	a2,28(a1)
    80000710:	16061663          	bnez	a2,8000087c <plic_done+0x1ac>
    80000714:	41f7d49b          	sraiw	s1,a5,0x1f
    80000718:	01e4d49b          	srliw	s1,s1,0x1e
    8000071c:	9cbd                	addw	s1,s1,a5
    8000071e:	4024d49b          	sraiw	s1,s1,0x2
    80000722:	4785                	li	a5,1
    80000724:	cddc                	sw	a5,28(a1)
    80000726:	048a                	slli	s1,s1,0x2
    80000728:	00013797          	auipc	a5,0x13
    8000072c:	90d7b023          	sd	a3,-1792(a5) # 80013028 <plic_priorities>
    80000730:	00013797          	auipc	a5,0x13
    80000734:	8ee7b823          	sd	a4,-1808(a5) # 80013020 <plic_ndevs>
    80000738:	06905a63          	blez	s1,800007ac <plic_done+0xdc>
    8000073c:	6a85                	lui	s5,0x1
    8000073e:	40800b3b          	negw	s6,s0
    80000742:	9a8a                	add	s5,s5,sp
    80000744:	ff0109b7          	lui	s3,0xff010
    80000748:	00ff0937          	lui	s2,0xff0
    8000074c:	77fd                	lui	a5,0xfffff
    8000074e:	004b1c1b          	slliw	s8,s6,0x4
    80000752:	94a2                	add	s1,s1,s0
    80000754:	009b1b1b          	slliw	s6,s6,0x9
    80000758:	f0098993          	addi	s3,s3,-256 # ffffffffff00ff00 <_payload_end+0xffffffff7e8e9bd0>
    8000075c:	0ff90913          	addi	s2,s2,255 # ff00ff <_ftext-0x7f00ff01>
    80000760:	00fafab3          	and	s5,s5,a5
    80000764:	f1402bf3          	csrr	s7,mhartid
    80000768:	4014                	lw	a3,0(s0)
    8000076a:	0000a797          	auipc	a5,0xa
    8000076e:	89678793          	addi	a5,a5,-1898 # 8000a000 <hart_phandles>
    80000772:	4581                	li	a1,0
    80000774:	0086971b          	slliw	a4,a3,0x8
    80000778:	0086d69b          	srliw	a3,a3,0x8
    8000077c:	0126f6b3          	and	a3,a3,s2
    80000780:	01377733          	and	a4,a4,s3
    80000784:	8f55                	or	a4,a4,a3
    80000786:	0107169b          	slliw	a3,a4,0x10
    8000078a:	0107571b          	srliw	a4,a4,0x10
    8000078e:	8ed9                	or	a3,a3,a4
    80000790:	2681                	sext.w	a3,a3
    80000792:	4621                	li	a2,8
    80000794:	4398                	lw	a4,0(a5)
    80000796:	02d70763          	beq	a4,a3,800007c4 <plic_done+0xf4>
    8000079a:	2585                	addiw	a1,a1,1
    8000079c:	0791                	addi	a5,a5,4
    8000079e:	fec59be3          	bne	a1,a2,80000794 <plic_done+0xc4>
    800007a2:	0421                	addi	s0,s0,8
    800007a4:	408487b3          	sub	a5,s1,s0
    800007a8:	fcf040e3          	bgtz	a5,80000768 <plic_done+0x98>
    800007ac:	60a6                	ld	ra,72(sp)
    800007ae:	6406                	ld	s0,64(sp)
    800007b0:	74e2                	ld	s1,56(sp)
    800007b2:	7942                	ld	s2,48(sp)
    800007b4:	79a2                	ld	s3,40(sp)
    800007b6:	7a02                	ld	s4,32(sp)
    800007b8:	6ae2                	ld	s5,24(sp)
    800007ba:	6b42                	ld	s6,16(sp)
    800007bc:	6ba2                	ld	s7,8(sp)
    800007be:	6c02                	ld	s8,0(sp)
    800007c0:	6161                	addi	sp,sp,80
    800007c2:	8082                	ret
    800007c4:	4054                	lw	a3,4(s0)
    800007c6:	41758733          	sub	a4,a1,s7
    800007ca:	0732                	slli	a4,a4,0xc
    800007cc:	0086979b          	slliw	a5,a3,0x8
    800007d0:	0086d69b          	srliw	a3,a3,0x8
    800007d4:	0137f7b3          	and	a5,a5,s3
    800007d8:	0126f6b3          	and	a3,a3,s2
    800007dc:	8fd5                	or	a5,a5,a3
    800007de:	0107961b          	slliw	a2,a5,0x10
    800007e2:	0107d79b          	srliw	a5,a5,0x10
    800007e6:	8fd1                	or	a5,a5,a2
    800007e8:	fc070713          	addi	a4,a4,-64
    800007ec:	0007861b          	sext.w	a2,a5
    800007f0:	47ad                	li	a5,11
    800007f2:	9756                	add	a4,a4,s5
    800007f4:	02f60e63          	beq	a2,a5,80000830 <plic_done+0x160>
    800007f8:	47a5                	li	a5,9
    800007fa:	06f61463          	bne	a2,a5,80000862 <plic_done+0x192>
    800007fe:	008a3603          	ld	a2,8(s4)
    80000802:	0044169b          	slliw	a3,s0,0x4
    80000806:	0094179b          	slliw	a5,s0,0x9
    8000080a:	6589                	lui	a1,0x2
    8000080c:	00200537          	lui	a0,0x200
    80000810:	95b2                	add	a1,a1,a2
    80000812:	018686bb          	addw	a3,a3,s8
    80000816:	016787bb          	addw	a5,a5,s6
    8000081a:	962a                	add	a2,a2,a0
    8000081c:	97b2                	add	a5,a5,a2
    8000081e:	96ae                	add	a3,a3,a1
    80000820:	0421                	addi	s0,s0,8
    80000822:	f71c                	sd	a5,40(a4)
    80000824:	fb14                	sd	a3,48(a4)
    80000826:	408487b3          	sub	a5,s1,s0
    8000082a:	f2f04fe3          	bgtz	a5,80000768 <plic_done+0x98>
    8000082e:	bfbd                	j	800007ac <plic_done+0xdc>
    80000830:	008a3603          	ld	a2,8(s4)
    80000834:	0044169b          	slliw	a3,s0,0x4
    80000838:	0094179b          	slliw	a5,s0,0x9
    8000083c:	6589                	lui	a1,0x2
    8000083e:	00200537          	lui	a0,0x200
    80000842:	95b2                	add	a1,a1,a2
    80000844:	018686bb          	addw	a3,a3,s8
    80000848:	016787bb          	addw	a5,a5,s6
    8000084c:	962a                	add	a2,a2,a0
    8000084e:	97b2                	add	a5,a5,a2
    80000850:	96ae                	add	a3,a3,a1
    80000852:	0421                	addi	s0,s0,8
    80000854:	ef1c                	sd	a5,24(a4)
    80000856:	f314                	sd	a3,32(a4)
    80000858:	408487b3          	sub	a5,s1,s0
    8000085c:	f0f046e3          	bgtz	a5,80000768 <plic_done+0x98>
    80000860:	b7b1                	j	800007ac <plic_done+0xdc>
    80000862:	00006517          	auipc	a0,0x6
    80000866:	36e50513          	addi	a0,a0,878 # 80006bd0 <softfloat_countLeadingZeros8+0x258>
    8000086a:	380010ef          	jal	ra,80001bea <printm>
    8000086e:	0421                	addi	s0,s0,8
    80000870:	408487b3          	sub	a5,s1,s0
    80000874:	eef04ae3          	bgtz	a5,80000768 <plic_done+0x98>
    80000878:	bf15                	j	800007ac <plic_done+0xdc>
    8000087a:	8082                	ret
    8000087c:	00006517          	auipc	a0,0x6
    80000880:	29c50513          	addi	a0,a0,668 # 80006b18 <softfloat_countLeadingZeros8+0x1a0>
    80000884:	00006697          	auipc	a3,0x6
    80000888:	2e468693          	addi	a3,a3,740 # 80006b68 <softfloat_countLeadingZeros8+0x1f0>
    8000088c:	1aa00613          	li	a2,426
    80000890:	00006597          	auipc	a1,0x6
    80000894:	27058593          	addi	a1,a1,624 # 80006b00 <softfloat_countLeadingZeros8+0x188>
    80000898:	352010ef          	jal	ra,80001bea <printm>
    8000089c:	6541                	lui	a0,0x10
    8000089e:	157d                	addi	a0,a0,-1
    800008a0:	3ba010ef          	jal	ra,80001c5a <poweroff>
    800008a4:	00006517          	auipc	a0,0x6
    800008a8:	27450513          	addi	a0,a0,628 # 80006b18 <softfloat_countLeadingZeros8+0x1a0>
    800008ac:	00006697          	auipc	a3,0x6
    800008b0:	2fc68693          	addi	a3,a3,764 # 80006ba8 <softfloat_countLeadingZeros8+0x230>
    800008b4:	1a900613          	li	a2,425
    800008b8:	00006597          	auipc	a1,0x6
    800008bc:	24858593          	addi	a1,a1,584 # 80006b00 <softfloat_countLeadingZeros8+0x188>
    800008c0:	32a010ef          	jal	ra,80001bea <printm>
    800008c4:	6541                	lui	a0,0x10
    800008c6:	157d                	addi	a0,a0,-1
    800008c8:	392010ef          	jal	ra,80001c5a <poweroff>
    800008cc:	00006517          	auipc	a0,0x6
    800008d0:	24c50513          	addi	a0,a0,588 # 80006b18 <softfloat_countLeadingZeros8+0x1a0>
    800008d4:	00006697          	auipc	a3,0x6
    800008d8:	2a468693          	addi	a3,a3,676 # 80006b78 <softfloat_countLeadingZeros8+0x200>
    800008dc:	1a800613          	li	a2,424
    800008e0:	00006597          	auipc	a1,0x6
    800008e4:	22058593          	addi	a1,a1,544 # 80006b00 <softfloat_countLeadingZeros8+0x188>
    800008e8:	302010ef          	jal	ra,80001bea <printm>
    800008ec:	6541                	lui	a0,0x10
    800008ee:	157d                	addi	a0,a0,-1
    800008f0:	36a010ef          	jal	ra,80001c5a <poweroff>
    800008f4:	00006517          	auipc	a0,0x6
    800008f8:	22450513          	addi	a0,a0,548 # 80006b18 <softfloat_countLeadingZeros8+0x1a0>
    800008fc:	00006697          	auipc	a3,0x6
    80000900:	1f468693          	addi	a3,a3,500 # 80006af0 <softfloat_countLeadingZeros8+0x178>
    80000904:	1a700613          	li	a2,423
    80000908:	00006597          	auipc	a1,0x6
    8000090c:	1f858593          	addi	a1,a1,504 # 80006b00 <softfloat_countLeadingZeros8+0x188>
    80000910:	2da010ef          	jal	ra,80001bea <printm>
    80000914:	6541                	lui	a0,0x10
    80000916:	157d                	addi	a0,a0,-1
    80000918:	342010ef          	jal	ra,80001c5a <poweroff>

000000008000091c <mem_done>:
    8000091c:	419c                	lw	a5,0(a1)
    8000091e:	12078063          	beqz	a5,80000a3e <mem_done+0x122>
    80000922:	0085b283          	ld	t0,8(a1)
    80000926:	1101                	addi	sp,sp,-32
    80000928:	ec06                	sd	ra,24(sp)
    8000092a:	e822                	sd	s0,16(sp)
    8000092c:	e426                	sd	s1,8(sp)
    8000092e:	10028963          	beqz	t0,80000a40 <mem_done+0x124>
    80000932:	4998                	lw	a4,16(a1)
    80000934:	00377793          	andi	a5,a4,3
    80000938:	10079463          	bnez	a5,80000a40 <mem_done+0x124>
    8000093c:	41f7579b          	sraiw	a5,a4,0x1f
    80000940:	01e7d79b          	srliw	a5,a5,0x1e
    80000944:	9fb9                	addw	a5,a5,a4
    80000946:	4027d79b          	sraiw	a5,a5,0x2
    8000094a:	078a                	slli	a5,a5,0x2
    8000094c:	00f288b3          	add	a7,t0,a5
    80000950:	0cf05a63          	blez	a5,80000a24 <mem_done+0x108>
    80000954:	611c                	ld	a5,0(a0)
    80000956:	00012f97          	auipc	t6,0x12
    8000095a:	6daf8f93          	addi	t6,t6,1754 # 80013030 <mem_size>
    8000095e:	000fbf03          	ld	t5,0(t6)
    80000962:	0107a303          	lw	t1,16(a5)
    80000966:	0147ae03          	lw	t3,20(a5)
    8000096a:	ff010637          	lui	a2,0xff010
    8000096e:	fff3051b          	addiw	a0,t1,-1
    80000972:	fffe059b          	addiw	a1,t3,-1
    80000976:	1502                	slli	a0,a0,0x20
    80000978:	1582                	slli	a1,a1,0x20
    8000097a:	9101                	srli	a0,a0,0x20
    8000097c:	9181                	srli	a1,a1,0x20
    8000097e:	0505                	addi	a0,a0,1
    80000980:	0585                	addi	a1,a1,1
    80000982:	00ff06b7          	lui	a3,0xff0
    80000986:	00000817          	auipc	a6,0x0
    8000098a:	f9680813          	addi	a6,a6,-106 # 8000091c <mem_done>
    8000098e:	050a                	slli	a0,a0,0x2
    80000990:	058a                	slli	a1,a1,0x2
    80000992:	4e81                	li	t4,0
    80000994:	f0060613          	addi	a2,a2,-256 # ffffffffff00ff00 <_payload_end+0xffffffff7e8e9bd0>
    80000998:	0ff68693          	addi	a3,a3,255 # ff00ff <_ftext-0x7f00ff01>
    8000099c:	08605b63          	blez	t1,80000a32 <mem_done+0x116>
    800009a0:	00a28433          	add	s0,t0,a0
    800009a4:	4381                	li	t2,0
    800009a6:	0002a703          	lw	a4,0(t0)
    800009aa:	1382                	slli	t2,t2,0x20
    800009ac:	0291                	addi	t0,t0,4
    800009ae:	0087179b          	slliw	a5,a4,0x8
    800009b2:	0087571b          	srliw	a4,a4,0x8
    800009b6:	8f75                	and	a4,a4,a3
    800009b8:	8ff1                	and	a5,a5,a2
    800009ba:	8fd9                	or	a5,a5,a4
    800009bc:	0107971b          	slliw	a4,a5,0x10
    800009c0:	0107d79b          	srliw	a5,a5,0x10
    800009c4:	8fd9                	or	a5,a5,a4
    800009c6:	1782                	slli	a5,a5,0x20
    800009c8:	9381                	srli	a5,a5,0x20
    800009ca:	93be                	add	t2,t2,a5
    800009cc:	fc829de3          	bne	t0,s0,800009a6 <mem_done+0x8a>
    800009d0:	07c05563          	blez	t3,80000a3a <mem_done+0x11e>
    800009d4:	00b284b3          	add	s1,t0,a1
    800009d8:	4781                	li	a5,0
    800009da:	0002a703          	lw	a4,0(t0)
    800009de:	02079413          	slli	s0,a5,0x20
    800009e2:	0291                	addi	t0,t0,4
    800009e4:	0087179b          	slliw	a5,a4,0x8
    800009e8:	0087571b          	srliw	a4,a4,0x8
    800009ec:	8f75                	and	a4,a4,a3
    800009ee:	8ff1                	and	a5,a5,a2
    800009f0:	8fd9                	or	a5,a5,a4
    800009f2:	0107971b          	slliw	a4,a5,0x10
    800009f6:	0107d79b          	srliw	a5,a5,0x10
    800009fa:	8fd9                	or	a5,a5,a4
    800009fc:	1782                	slli	a5,a5,0x20
    800009fe:	9381                	srli	a5,a5,0x20
    80000a00:	97a2                	add	a5,a5,s0
    80000a02:	fc929ce3          	bne	t0,s1,800009da <mem_done+0xbe>
    80000a06:	00786763          	bltu	a6,t2,80000a14 <mem_done+0xf8>
    80000a0a:	93be                	add	t2,t2,a5
    80000a0c:	0103e463          	bltu	t2,a6,80000a14 <mem_done+0xf8>
    80000a10:	8f3e                	mv	t5,a5
    80000a12:	4e85                	li	t4,1
    80000a14:	405887b3          	sub	a5,a7,t0
    80000a18:	f8f042e3          	bgtz	a5,8000099c <mem_done+0x80>
    80000a1c:	000e8463          	beqz	t4,80000a24 <mem_done+0x108>
    80000a20:	01efb023          	sd	t5,0(t6)
    80000a24:	04589263          	bne	a7,t0,80000a68 <mem_done+0x14c>
    80000a28:	60e2                	ld	ra,24(sp)
    80000a2a:	6442                	ld	s0,16(sp)
    80000a2c:	64a2                	ld	s1,8(sp)
    80000a2e:	6105                	addi	sp,sp,32
    80000a30:	8082                	ret
    80000a32:	4381                	li	t2,0
    80000a34:	fbc040e3          	bgtz	t3,800009d4 <mem_done+0xb8>
    80000a38:	bff1                	j	80000a14 <mem_done+0xf8>
    80000a3a:	4781                	li	a5,0
    80000a3c:	b7e9                	j	80000a06 <mem_done+0xea>
    80000a3e:	8082                	ret
    80000a40:	00006517          	auipc	a0,0x6
    80000a44:	0d850513          	addi	a0,a0,216 # 80006b18 <softfloat_countLeadingZeros8+0x1a0>
    80000a48:	00006697          	auipc	a3,0x6
    80000a4c:	1b868693          	addi	a3,a3,440 # 80006c00 <softfloat_countLeadingZeros8+0x288>
    80000a50:	0b400613          	li	a2,180
    80000a54:	00006597          	auipc	a1,0x6
    80000a58:	0ac58593          	addi	a1,a1,172 # 80006b00 <softfloat_countLeadingZeros8+0x188>
    80000a5c:	18e010ef          	jal	ra,80001bea <printm>
    80000a60:	6541                	lui	a0,0x10
    80000a62:	157d                	addi	a0,a0,-1
    80000a64:	1f6010ef          	jal	ra,80001c5a <poweroff>
    80000a68:	00006517          	auipc	a0,0x6
    80000a6c:	0b050513          	addi	a0,a0,176 # 80006b18 <softfloat_countLeadingZeros8+0x1a0>
    80000a70:	00006697          	auipc	a3,0x6
    80000a74:	1c068693          	addi	a3,a3,448 # 80006c30 <softfloat_countLeadingZeros8+0x2b8>
    80000a78:	0bc00613          	li	a2,188
    80000a7c:	00006597          	auipc	a1,0x6
    80000a80:	08458593          	addi	a1,a1,132 # 80006b00 <softfloat_countLeadingZeros8+0x188>
    80000a84:	166010ef          	jal	ra,80001bea <printm>
    80000a88:	6541                	lui	a0,0x10
    80000a8a:	157d                	addi	a0,a0,-1
    80000a8c:	1ce010ef          	jal	ra,80001c5a <poweroff>

0000000080000a90 <mem_prop>:
    80000a90:	1101                	addi	sp,sp,-32
    80000a92:	e04a                	sd	s2,0(sp)
    80000a94:	00853903          	ld	s2,8(a0) # 10008 <_ftext-0x7ffefff8>
    80000a98:	e822                	sd	s0,16(sp)
    80000a9a:	e426                	sd	s1,8(sp)
    80000a9c:	842a                	mv	s0,a0
    80000a9e:	84ae                	mv	s1,a1
    80000aa0:	854a                	mv	a0,s2
    80000aa2:	00006597          	auipc	a1,0x6
    80000aa6:	19e58593          	addi	a1,a1,414 # 80006c40 <softfloat_countLeadingZeros8+0x2c8>
    80000aaa:	ec06                	sd	ra,24(sp)
    80000aac:	011050ef          	jal	ra,800062bc <strcmp>
    80000ab0:	e10d                	bnez	a0,80000ad2 <mem_prop+0x42>
    80000ab2:	6808                	ld	a0,16(s0)
    80000ab4:	00006597          	auipc	a1,0x6
    80000ab8:	19c58593          	addi	a1,a1,412 # 80006c50 <softfloat_countLeadingZeros8+0x2d8>
    80000abc:	001050ef          	jal	ra,800062bc <strcmp>
    80000ac0:	e909                	bnez	a0,80000ad2 <mem_prop+0x42>
    80000ac2:	4785                	li	a5,1
    80000ac4:	c09c                	sw	a5,0(s1)
    80000ac6:	60e2                	ld	ra,24(sp)
    80000ac8:	6442                	ld	s0,16(sp)
    80000aca:	64a2                	ld	s1,8(sp)
    80000acc:	6902                	ld	s2,0(sp)
    80000ace:	6105                	addi	sp,sp,32
    80000ad0:	8082                	ret
    80000ad2:	00006597          	auipc	a1,0x6
    80000ad6:	18658593          	addi	a1,a1,390 # 80006c58 <softfloat_countLeadingZeros8+0x2e0>
    80000ada:	854a                	mv	a0,s2
    80000adc:	7e0050ef          	jal	ra,800062bc <strcmp>
    80000ae0:	f17d                	bnez	a0,80000ac6 <mem_prop+0x36>
    80000ae2:	6818                	ld	a4,16(s0)
    80000ae4:	4c1c                	lw	a5,24(s0)
    80000ae6:	60e2                	ld	ra,24(sp)
    80000ae8:	6442                	ld	s0,16(sp)
    80000aea:	e498                	sd	a4,8(s1)
    80000aec:	c89c                	sw	a5,16(s1)
    80000aee:	6902                	ld	s2,0(sp)
    80000af0:	64a2                	ld	s1,8(sp)
    80000af2:	6105                	addi	sp,sp,32
    80000af4:	8082                	ret

0000000080000af6 <chosen_open>:
    80000af6:	1101                	addi	sp,sp,-32
    80000af8:	e822                	sd	s0,16(sp)
    80000afa:	842a                	mv	s0,a0
    80000afc:	6508                	ld	a0,8(a0)
    80000afe:	e426                	sd	s1,8(sp)
    80000b00:	84ae                	mv	s1,a1
    80000b02:	00006597          	auipc	a1,0x6
    80000b06:	15e58593          	addi	a1,a1,350 # 80006c60 <softfloat_countLeadingZeros8+0x2e8>
    80000b0a:	ec06                	sd	ra,24(sp)
    80000b0c:	7b0050ef          	jal	ra,800062bc <strcmp>
    80000b10:	e111                	bnez	a0,80000b14 <chosen_open+0x1e>
    80000b12:	e080                	sd	s0,0(s1)
    80000b14:	60e2                	ld	ra,24(sp)
    80000b16:	6442                	ld	s0,16(sp)
    80000b18:	64a2                	ld	s1,8(sp)
    80000b1a:	6105                	addi	sp,sp,32
    80000b1c:	8082                	ret

0000000080000b1e <hart_prop>:
    80000b1e:	1101                	addi	sp,sp,-32
    80000b20:	e04a                	sd	s2,0(sp)
    80000b22:	00853903          	ld	s2,8(a0)
    80000b26:	e822                	sd	s0,16(sp)
    80000b28:	e426                	sd	s1,8(sp)
    80000b2a:	842a                	mv	s0,a0
    80000b2c:	84ae                	mv	s1,a1
    80000b2e:	854a                	mv	a0,s2
    80000b30:	00006597          	auipc	a1,0x6
    80000b34:	11058593          	addi	a1,a1,272 # 80006c40 <softfloat_countLeadingZeros8+0x2c8>
    80000b38:	ec06                	sd	ra,24(sp)
    80000b3a:	782050ef          	jal	ra,800062bc <strcmp>
    80000b3e:	e505                	bnez	a0,80000b66 <hart_prop+0x48>
    80000b40:	6808                	ld	a0,16(s0)
    80000b42:	00006597          	auipc	a1,0x6
    80000b46:	12658593          	addi	a1,a1,294 # 80006c68 <softfloat_countLeadingZeros8+0x2f0>
    80000b4a:	772050ef          	jal	ra,800062bc <strcmp>
    80000b4e:	ed01                	bnez	a0,80000b66 <hart_prop+0x48>
    80000b50:	609c                	ld	a5,0(s1)
    80000b52:	14079d63          	bnez	a5,80000cac <hart_prop+0x18e>
    80000b56:	601c                	ld	a5,0(s0)
    80000b58:	60e2                	ld	ra,24(sp)
    80000b5a:	6442                	ld	s0,16(sp)
    80000b5c:	e09c                	sd	a5,0(s1)
    80000b5e:	6902                	ld	s2,0(sp)
    80000b60:	64a2                	ld	s1,8(sp)
    80000b62:	6105                	addi	sp,sp,32
    80000b64:	8082                	ret
    80000b66:	00006597          	auipc	a1,0x6
    80000b6a:	11a58593          	addi	a1,a1,282 # 80006c80 <softfloat_countLeadingZeros8+0x308>
    80000b6e:	854a                	mv	a0,s2
    80000b70:	74c050ef          	jal	ra,800062bc <strcmp>
    80000b74:	ed01                	bnez	a0,80000b8c <hart_prop+0x6e>
    80000b76:	689c                	ld	a5,16(s1)
    80000b78:	10079663          	bnez	a5,80000c84 <hart_prop+0x166>
    80000b7c:	601c                	ld	a5,0(s0)
    80000b7e:	e89c                	sd	a5,16(s1)
    80000b80:	60e2                	ld	ra,24(sp)
    80000b82:	6442                	ld	s0,16(sp)
    80000b84:	64a2                	ld	s1,8(sp)
    80000b86:	6902                	ld	s2,0(sp)
    80000b88:	6105                	addi	sp,sp,32
    80000b8a:	8082                	ret
    80000b8c:	00006597          	auipc	a1,0x6
    80000b90:	12458593          	addi	a1,a1,292 # 80006cb0 <softfloat_countLeadingZeros8+0x338>
    80000b94:	854a                	mv	a0,s2
    80000b96:	726050ef          	jal	ra,800062bc <strcmp>
    80000b9a:	c129                	beqz	a0,80000bdc <hart_prop+0xbe>
    80000b9c:	00006597          	auipc	a1,0x6
    80000ba0:	12c58593          	addi	a1,a1,300 # 80006cc8 <softfloat_countLeadingZeros8+0x350>
    80000ba4:	854a                	mv	a0,s2
    80000ba6:	716050ef          	jal	ra,800062bc <strcmp>
    80000baa:	e535                	bnez	a0,80000c16 <hart_prop+0xf8>
    80000bac:	681c                	ld	a5,16(s0)
    80000bae:	ff0106b7          	lui	a3,0xff010
    80000bb2:	f0068693          	addi	a3,a3,-256 # ffffffffff00ff00 <_payload_end+0xffffffff7e8e9bd0>
    80000bb6:	4398                	lw	a4,0(a5)
    80000bb8:	0087179b          	slliw	a5,a4,0x8
    80000bbc:	8ff5                	and	a5,a5,a3
    80000bbe:	00ff06b7          	lui	a3,0xff0
    80000bc2:	0087571b          	srliw	a4,a4,0x8
    80000bc6:	0ff68693          	addi	a3,a3,255 # ff00ff <_ftext-0x7f00ff01>
    80000bca:	8f75                	and	a4,a4,a3
    80000bcc:	8fd9                	or	a5,a5,a4
    80000bce:	0107971b          	slliw	a4,a5,0x10
    80000bd2:	0107d79b          	srliw	a5,a5,0x10
    80000bd6:	8fd9                	or	a5,a5,a4
    80000bd8:	ccdc                	sw	a5,28(s1)
    80000bda:	b75d                	j	80000b80 <hart_prop+0x62>
    80000bdc:	681c                	ld	a5,16(s0)
    80000bde:	ff0106b7          	lui	a3,0xff010
    80000be2:	f0068693          	addi	a3,a3,-256 # ffffffffff00ff00 <_payload_end+0xffffffff7e8e9bd0>
    80000be6:	4398                	lw	a4,0(a5)
    80000be8:	60e2                	ld	ra,24(sp)
    80000bea:	6442                	ld	s0,16(sp)
    80000bec:	0087179b          	slliw	a5,a4,0x8
    80000bf0:	8ff5                	and	a5,a5,a3
    80000bf2:	00ff06b7          	lui	a3,0xff0
    80000bf6:	0087571b          	srliw	a4,a4,0x8
    80000bfa:	0ff68693          	addi	a3,a3,255 # ff00ff <_ftext-0x7f00ff01>
    80000bfe:	8f75                	and	a4,a4,a3
    80000c00:	8fd9                	or	a5,a5,a4
    80000c02:	0107971b          	slliw	a4,a5,0x10
    80000c06:	0107d79b          	srliw	a5,a5,0x10
    80000c0a:	8fd9                	or	a5,a5,a4
    80000c0c:	cc9c                	sw	a5,24(s1)
    80000c0e:	6902                	ld	s2,0(sp)
    80000c10:	64a2                	ld	s1,8(sp)
    80000c12:	6105                	addi	sp,sp,32
    80000c14:	8082                	ret
    80000c16:	00006597          	auipc	a1,0x6
    80000c1a:	04258593          	addi	a1,a1,66 # 80006c58 <softfloat_countLeadingZeros8+0x2e0>
    80000c1e:	854a                	mv	a0,s2
    80000c20:	69c050ef          	jal	ra,800062bc <strcmp>
    80000c24:	87aa                	mv	a5,a0
    80000c26:	fd29                	bnez	a0,80000b80 <hart_prop+0x62>
    80000c28:	6018                	ld	a4,0(s0)
    80000c2a:	6810                	ld	a2,16(s0)
    80000c2c:	6318                	ld	a4,0(a4)
    80000c2e:	4b18                	lw	a4,16(a4)
    80000c30:	04e05863          	blez	a4,80000c80 <hart_prop+0x162>
    80000c34:	fff7059b          	addiw	a1,a4,-1
    80000c38:	1582                	slli	a1,a1,0x20
    80000c3a:	9181                	srli	a1,a1,0x20
    80000c3c:	0585                	addi	a1,a1,1
    80000c3e:	058a                	slli	a1,a1,0x2
    80000c40:	ff010837          	lui	a6,0xff010
    80000c44:	00ff0537          	lui	a0,0xff0
    80000c48:	95b2                	add	a1,a1,a2
    80000c4a:	f0080813          	addi	a6,a6,-256 # ffffffffff00ff00 <_payload_end+0xffffffff7e8e9bd0>
    80000c4e:	0ff50513          	addi	a0,a0,255 # ff00ff <_ftext-0x7f00ff01>
    80000c52:	4218                	lw	a4,0(a2)
    80000c54:	02079693          	slli	a3,a5,0x20
    80000c58:	0611                	addi	a2,a2,4
    80000c5a:	0087179b          	slliw	a5,a4,0x8
    80000c5e:	0087571b          	srliw	a4,a4,0x8
    80000c62:	8f69                	and	a4,a4,a0
    80000c64:	0107f7b3          	and	a5,a5,a6
    80000c68:	8fd9                	or	a5,a5,a4
    80000c6a:	0107971b          	slliw	a4,a5,0x10
    80000c6e:	0107d79b          	srliw	a5,a5,0x10
    80000c72:	8fd9                	or	a5,a5,a4
    80000c74:	1782                	slli	a5,a5,0x20
    80000c76:	9381                	srli	a5,a5,0x20
    80000c78:	97b6                	add	a5,a5,a3
    80000c7a:	fcb61ce3          	bne	a2,a1,80000c52 <hart_prop+0x134>
    80000c7e:	2781                	sext.w	a5,a5
    80000c80:	c49c                	sw	a5,8(s1)
    80000c82:	bdfd                	j	80000b80 <hart_prop+0x62>
    80000c84:	00006517          	auipc	a0,0x6
    80000c88:	e9450513          	addi	a0,a0,-364 # 80006b18 <softfloat_countLeadingZeros8+0x1a0>
    80000c8c:	00006697          	auipc	a3,0x6
    80000c90:	00c68693          	addi	a3,a3,12 # 80006c98 <softfloat_countLeadingZeros8+0x320>
    80000c94:	0ef00613          	li	a2,239
    80000c98:	00006597          	auipc	a1,0x6
    80000c9c:	e6858593          	addi	a1,a1,-408 # 80006b00 <softfloat_countLeadingZeros8+0x188>
    80000ca0:	74b000ef          	jal	ra,80001bea <printm>
    80000ca4:	6541                	lui	a0,0x10
    80000ca6:	157d                	addi	a0,a0,-1
    80000ca8:	7b3000ef          	jal	ra,80001c5a <poweroff>
    80000cac:	00006517          	auipc	a0,0x6
    80000cb0:	e6c50513          	addi	a0,a0,-404 # 80006b18 <softfloat_countLeadingZeros8+0x1a0>
    80000cb4:	00006697          	auipc	a3,0x6
    80000cb8:	fbc68693          	addi	a3,a3,-68 # 80006c70 <softfloat_countLeadingZeros8+0x2f8>
    80000cbc:	0ec00613          	li	a2,236
    80000cc0:	bfe1                	j	80000c98 <hart_prop+0x17a>

0000000080000cc2 <hart_filter_prop>:
    80000cc2:	1101                	addi	sp,sp,-32
    80000cc4:	e04a                	sd	s2,0(sp)
    80000cc6:	00853903          	ld	s2,8(a0)
    80000cca:	e822                	sd	s0,16(sp)
    80000ccc:	e426                	sd	s1,8(sp)
    80000cce:	842e                	mv	s0,a1
    80000cd0:	84aa                	mv	s1,a0
    80000cd2:	00006597          	auipc	a1,0x6
    80000cd6:	f6e58593          	addi	a1,a1,-146 # 80006c40 <softfloat_countLeadingZeros8+0x2c8>
    80000cda:	854a                	mv	a0,s2
    80000cdc:	ec06                	sd	ra,24(sp)
    80000cde:	5de050ef          	jal	ra,800062bc <strcmp>
    80000ce2:	e10d                	bnez	a0,80000d04 <hart_filter_prop+0x42>
    80000ce4:	6888                	ld	a0,16(s1)
    80000ce6:	00006597          	auipc	a1,0x6
    80000cea:	f8258593          	addi	a1,a1,-126 # 80006c68 <softfloat_countLeadingZeros8+0x2f0>
    80000cee:	5ce050ef          	jal	ra,800062bc <strcmp>
    80000cf2:	e909                	bnez	a0,80000d04 <hart_filter_prop+0x42>
    80000cf4:	4785                	li	a5,1
    80000cf6:	60e2                	ld	ra,24(sp)
    80000cf8:	c01c                	sw	a5,0(s0)
    80000cfa:	6442                	ld	s0,16(sp)
    80000cfc:	64a2                	ld	s1,8(sp)
    80000cfe:	6902                	ld	s2,0(sp)
    80000d00:	6105                	addi	sp,sp,32
    80000d02:	8082                	ret
    80000d04:	00006597          	auipc	a1,0x6
    80000d08:	f5458593          	addi	a1,a1,-172 # 80006c58 <softfloat_countLeadingZeros8+0x2e0>
    80000d0c:	854a                	mv	a0,s2
    80000d0e:	5ae050ef          	jal	ra,800062bc <strcmp>
    80000d12:	87aa                	mv	a5,a0
    80000d14:	e525                	bnez	a0,80000d7c <hart_filter_prop+0xba>
    80000d16:	6098                	ld	a4,0(s1)
    80000d18:	6890                	ld	a2,16(s1)
    80000d1a:	6318                	ld	a4,0(a4)
    80000d1c:	4b18                	lw	a4,16(a4)
    80000d1e:	04e05863          	blez	a4,80000d6e <hart_filter_prop+0xac>
    80000d22:	fff7059b          	addiw	a1,a4,-1
    80000d26:	1582                	slli	a1,a1,0x20
    80000d28:	9181                	srli	a1,a1,0x20
    80000d2a:	0585                	addi	a1,a1,1
    80000d2c:	058a                	slli	a1,a1,0x2
    80000d2e:	ff010837          	lui	a6,0xff010
    80000d32:	00ff0537          	lui	a0,0xff0
    80000d36:	95b2                	add	a1,a1,a2
    80000d38:	f0080813          	addi	a6,a6,-256 # ffffffffff00ff00 <_payload_end+0xffffffff7e8e9bd0>
    80000d3c:	0ff50513          	addi	a0,a0,255 # ff00ff <_ftext-0x7f00ff01>
    80000d40:	4218                	lw	a4,0(a2)
    80000d42:	02079693          	slli	a3,a5,0x20
    80000d46:	0611                	addi	a2,a2,4
    80000d48:	0087179b          	slliw	a5,a4,0x8
    80000d4c:	0087571b          	srliw	a4,a4,0x8
    80000d50:	8f69                	and	a4,a4,a0
    80000d52:	0107f7b3          	and	a5,a5,a6
    80000d56:	8fd9                	or	a5,a5,a4
    80000d58:	0107971b          	slliw	a4,a5,0x10
    80000d5c:	0107d79b          	srliw	a5,a5,0x10
    80000d60:	8fd9                	or	a5,a5,a4
    80000d62:	1782                	slli	a5,a5,0x20
    80000d64:	9381                	srli	a5,a5,0x20
    80000d66:	97b6                	add	a5,a5,a3
    80000d68:	fcb61ce3          	bne	a2,a1,80000d40 <hart_filter_prop+0x7e>
    80000d6c:	2781                	sext.w	a5,a5
    80000d6e:	c05c                	sw	a5,4(s0)
    80000d70:	60e2                	ld	ra,24(sp)
    80000d72:	6442                	ld	s0,16(sp)
    80000d74:	64a2                	ld	s1,8(sp)
    80000d76:	6902                	ld	s2,0(sp)
    80000d78:	6105                	addi	sp,sp,32
    80000d7a:	8082                	ret
    80000d7c:	00006597          	auipc	a1,0x6
    80000d80:	fd458593          	addi	a1,a1,-44 # 80006d50 <softfloat_countLeadingZeros8+0x3d8>
    80000d84:	854a                	mv	a0,s2
    80000d86:	536050ef          	jal	ra,800062bc <strcmp>
    80000d8a:	cd01                	beqz	a0,80000da2 <hart_filter_prop+0xe0>
    80000d8c:	00006597          	auipc	a1,0x6
    80000d90:	f4458593          	addi	a1,a1,-188 # 80006cd0 <softfloat_countLeadingZeros8+0x358>
    80000d94:	854a                	mv	a0,s2
    80000d96:	526050ef          	jal	ra,800062bc <strcmp>
    80000d9a:	f979                	bnez	a0,80000d70 <hart_filter_prop+0xae>
    80000d9c:	689c                	ld	a5,16(s1)
    80000d9e:	e81c                	sd	a5,16(s0)
    80000da0:	bfc1                	j	80000d70 <hart_filter_prop+0xae>
    80000da2:	689c                	ld	a5,16(s1)
    80000da4:	60e2                	ld	ra,24(sp)
    80000da6:	64a2                	ld	s1,8(sp)
    80000da8:	e41c                	sd	a5,8(s0)
    80000daa:	6442                	ld	s0,16(sp)
    80000dac:	6902                	ld	s2,0(sp)
    80000dae:	6105                	addi	sp,sp,32
    80000db0:	8082                	ret

0000000080000db2 <fdt_scan_helper>:
    80000db2:	4785                	li	a5,1
    80000db4:	7131                	addi	sp,sp,-192
    80000db6:	1782                	slli	a5,a5,0x20
    80000db8:	f922                	sd	s0,176(sp)
    80000dba:	f526                	sd	s1,168(sp)
    80000dbc:	0789                	addi	a5,a5,2
    80000dbe:	00ff04b7          	lui	s1,0xff0
    80000dc2:	ff010437          	lui	s0,0xff010
    80000dc6:	f14a                	sd	s2,160(sp)
    80000dc8:	ed4e                	sd	s3,152(sp)
    80000dca:	e952                	sd	s4,144(sp)
    80000dcc:	e556                	sd	s5,136(sp)
    80000dce:	e15a                	sd	s6,128(sp)
    80000dd0:	fcde                	sd	s7,120(sp)
    80000dd2:	f8e2                	sd	s8,112(sp)
    80000dd4:	f4e6                	sd	s9,104(sp)
    80000dd6:	f0ea                	sd	s10,96(sp)
    80000dd8:	fd06                	sd	ra,184(sp)
    80000dda:	ecee                	sd	s11,88(sp)
    80000ddc:	8c32                	mv	s8,a2
    80000dde:	8baa                	mv	s7,a0
    80000de0:	892e                	mv	s2,a1
    80000de2:	8b36                	mv	s6,a3
    80000de4:	ec32                	sd	a2,24(sp)
    80000de6:	f43e                	sd	a5,40(sp)
    80000de8:	f832                	sd	a2,48(sp)
    80000dea:	4d01                	li	s10,0
    80000dec:	0ff48493          	addi	s1,s1,255 # ff00ff <_ftext-0x7f00ff01>
    80000df0:	f0040413          	addi	s0,s0,-256 # ffffffffff00ff00 <_payload_end+0xffffffff7e8e9bd0>
    80000df4:	4c8d                	li	s9,3
    80000df6:	00006a97          	auipc	s5,0x6
    80000dfa:	ef2a8a93          	addi	s5,s5,-270 # 80006ce8 <softfloat_countLeadingZeros8+0x370>
    80000dfe:	00006a17          	auipc	s4,0x6
    80000e02:	efaa0a13          	addi	s4,s4,-262 # 80006cf8 <softfloat_countLeadingZeros8+0x380>
    80000e06:	4991                	li	s3,4
    80000e08:	000ba783          	lw	a5,0(s7)
    80000e0c:	0087d71b          	srliw	a4,a5,0x8
    80000e10:	0087979b          	slliw	a5,a5,0x8
    80000e14:	8fe1                	and	a5,a5,s0
    80000e16:	8f65                	and	a4,a4,s1
    80000e18:	8f5d                	or	a4,a4,a5
    80000e1a:	0107179b          	slliw	a5,a4,0x10
    80000e1e:	0107571b          	srliw	a4,a4,0x10
    80000e22:	8fd9                	or	a5,a5,a4
    80000e24:	2781                	sext.w	a5,a5
    80000e26:	07978763          	beq	a5,s9,80000e94 <fdt_scan_helper+0xe2>
    80000e2a:	02fceb63          	bltu	s9,a5,80000e60 <fdt_scan_helper+0xae>
    80000e2e:	4705                	li	a4,1
    80000e30:	12e78c63          	beq	a5,a4,80000f68 <fdt_scan_helper+0x1b6>
    80000e34:	4709                	li	a4,2
    80000e36:	04e79363          	bne	a5,a4,80000e7c <fdt_scan_helper+0xca>
    80000e3a:	020d0763          	beqz	s10,80000e68 <fdt_scan_helper+0xb6>
    80000e3e:	0b91                	addi	s7,s7,4
    80000e40:	70ea                	ld	ra,184(sp)
    80000e42:	744a                	ld	s0,176(sp)
    80000e44:	74aa                	ld	s1,168(sp)
    80000e46:	790a                	ld	s2,160(sp)
    80000e48:	69ea                	ld	s3,152(sp)
    80000e4a:	6a4a                	ld	s4,144(sp)
    80000e4c:	6aaa                	ld	s5,136(sp)
    80000e4e:	6b0a                	ld	s6,128(sp)
    80000e50:	7c46                	ld	s8,112(sp)
    80000e52:	7ca6                	ld	s9,104(sp)
    80000e54:	7d06                	ld	s10,96(sp)
    80000e56:	6de6                	ld	s11,88(sp)
    80000e58:	855e                	mv	a0,s7
    80000e5a:	7be6                	ld	s7,120(sp)
    80000e5c:	6129                	addi	sp,sp,192
    80000e5e:	8082                	ret
    80000e60:	01379e63          	bne	a5,s3,80000e7c <fdt_scan_helper+0xca>
    80000e64:	0b91                	addi	s7,s7,4
    80000e66:	b74d                	j	80000e08 <fdt_scan_helper+0x56>
    80000e68:	fc0c0be3          	beqz	s8,80000e3e <fdt_scan_helper+0x8c>
    80000e6c:	010b3783          	ld	a5,16(s6)
    80000e70:	d7f9                	beqz	a5,80000e3e <fdt_scan_helper+0x8c>
    80000e72:	020b3583          	ld	a1,32(s6)
    80000e76:	8562                	mv	a0,s8
    80000e78:	9782                	jalr	a5
    80000e7a:	b7d1                	j	80000e3e <fdt_scan_helper+0x8c>
    80000e7c:	fc0d12e3          	bnez	s10,80000e40 <fdt_scan_helper+0x8e>
    80000e80:	fc0c00e3          	beqz	s8,80000e40 <fdt_scan_helper+0x8e>
    80000e84:	010b3783          	ld	a5,16(s6)
    80000e88:	dfc5                	beqz	a5,80000e40 <fdt_scan_helper+0x8e>
    80000e8a:	020b3583          	ld	a1,32(s6)
    80000e8e:	8562                	mv	a0,s8
    80000e90:	9782                	jalr	a5
    80000e92:	b77d                	j	80000e40 <fdt_scan_helper+0x8e>
    80000e94:	140d1463          	bnez	s10,80000fdc <fdt_scan_helper+0x22a>
    80000e98:	008ba703          	lw	a4,8(s7)
    80000e9c:	004ba603          	lw	a2,4(s7)
    80000ea0:	00cb8593          	addi	a1,s7,12
    80000ea4:	0087179b          	slliw	a5,a4,0x8
    80000ea8:	0087571b          	srliw	a4,a4,0x8
    80000eac:	8f65                	and	a4,a4,s1
    80000eae:	8fe1                	and	a5,a5,s0
    80000eb0:	0086169b          	slliw	a3,a2,0x8
    80000eb4:	8fd9                	or	a5,a5,a4
    80000eb6:	0086561b          	srliw	a2,a2,0x8
    80000eba:	0107971b          	slliw	a4,a5,0x10
    80000ebe:	8ee1                	and	a3,a3,s0
    80000ec0:	8e65                	and	a2,a2,s1
    80000ec2:	0107d79b          	srliw	a5,a5,0x10
    80000ec6:	8ed1                	or	a3,a3,a2
    80000ec8:	8f5d                	or	a4,a4,a5
    80000eca:	01069d9b          	slliw	s11,a3,0x10
    80000ece:	1702                	slli	a4,a4,0x20
    80000ed0:	0106d69b          	srliw	a3,a3,0x10
    80000ed4:	9301                	srli	a4,a4,0x20
    80000ed6:	00dde6b3          	or	a3,s11,a3
    80000eda:	974a                	add	a4,a4,s2
    80000edc:	00068d9b          	sext.w	s11,a3
    80000ee0:	fc3a                	sd	a4,56(sp)
    80000ee2:	c4ee                	sw	s11,72(sp)
    80000ee4:	e0ae                	sd	a1,64(sp)
    80000ee6:	040c0e63          	beqz	s8,80000f42 <fdt_scan_helper+0x190>
    80000eea:	853a                	mv	a0,a4
    80000eec:	85d6                	mv	a1,s5
    80000eee:	e43a                	sd	a4,8(sp)
    80000ef0:	3cc050ef          	jal	ra,800062bc <strcmp>
    80000ef4:	6722                	ld	a4,8(sp)
    80000ef6:	e10d                	bnez	a0,80000f18 <fdt_scan_helper+0x166>
    80000ef8:	00cba683          	lw	a3,12(s7)
    80000efc:	0086979b          	slliw	a5,a3,0x8
    80000f00:	0086d69b          	srliw	a3,a3,0x8
    80000f04:	8ee5                	and	a3,a3,s1
    80000f06:	8fe1                	and	a5,a5,s0
    80000f08:	8fd5                	or	a5,a5,a3
    80000f0a:	0107969b          	slliw	a3,a5,0x10
    80000f0e:	0107d79b          	srliw	a5,a5,0x10
    80000f12:	8fd5                	or	a5,a5,a3
    80000f14:	00fc2823          	sw	a5,16(s8)
    80000f18:	85d2                	mv	a1,s4
    80000f1a:	853a                	mv	a0,a4
    80000f1c:	3a0050ef          	jal	ra,800062bc <strcmp>
    80000f20:	e10d                	bnez	a0,80000f42 <fdt_scan_helper+0x190>
    80000f22:	00cba703          	lw	a4,12(s7)
    80000f26:	0087179b          	slliw	a5,a4,0x8
    80000f2a:	0087571b          	srliw	a4,a4,0x8
    80000f2e:	8f65                	and	a4,a4,s1
    80000f30:	8fe1                	and	a5,a5,s0
    80000f32:	8fd9                	or	a5,a5,a4
    80000f34:	0107971b          	slliw	a4,a5,0x10
    80000f38:	0107d79b          	srliw	a5,a5,0x10
    80000f3c:	8fd9                	or	a5,a5,a4
    80000f3e:	00fc2a23          	sw	a5,20(s8)
    80000f42:	2d8d                	addiw	s11,s11,3
    80000f44:	41fdd79b          	sraiw	a5,s11,0x1f
    80000f48:	01e7d79b          	srliw	a5,a5,0x1e
    80000f4c:	01b787bb          	addw	a5,a5,s11
    80000f50:	008b3703          	ld	a4,8(s6)
    80000f54:	020b3583          	ld	a1,32(s6)
    80000f58:	4027d79b          	sraiw	a5,a5,0x2
    80000f5c:	278d                	addiw	a5,a5,3
    80000f5e:	078a                	slli	a5,a5,0x2
    80000f60:	1808                	addi	a0,sp,48
    80000f62:	9bbe                	add	s7,s7,a5
    80000f64:	9702                	jalr	a4
    80000f66:	b54d                	j	80000e08 <fdt_scan_helper+0x56>
    80000f68:	000d1b63          	bnez	s10,80000f7e <fdt_scan_helper+0x1cc>
    80000f6c:	000c0963          	beqz	s8,80000f7e <fdt_scan_helper+0x1cc>
    80000f70:	010b3783          	ld	a5,16(s6)
    80000f74:	c789                	beqz	a5,80000f7e <fdt_scan_helper+0x1cc>
    80000f76:	020b3583          	ld	a1,32(s6)
    80000f7a:	8562                	mv	a0,s8
    80000f7c:	9782                	jalr	a5
    80000f7e:	000b3783          	ld	a5,0(s6)
    80000f82:	004b8513          	addi	a0,s7,4
    80000f86:	f02a                	sd	a0,32(sp)
    80000f88:	c791                	beqz	a5,80000f94 <fdt_scan_helper+0x1e2>
    80000f8a:	020b3583          	ld	a1,32(s6)
    80000f8e:	0828                	addi	a0,sp,24
    80000f90:	9782                	jalr	a5
    80000f92:	7502                	ld	a0,32(sp)
    80000f94:	30e050ef          	jal	ra,800062a2 <strlen>
    80000f98:	9971                	andi	a0,a0,-4
    80000f9a:	0521                	addi	a0,a0,8
    80000f9c:	86da                	mv	a3,s6
    80000f9e:	0830                	addi	a2,sp,24
    80000fa0:	85ca                	mv	a1,s2
    80000fa2:	955e                	add	a0,a0,s7
    80000fa4:	e0fff0ef          	jal	ra,80000db2 <fdt_scan_helper>
    80000fa8:	018b3783          	ld	a5,24(s6)
    80000fac:	8d2a                	mv	s10,a0
    80000fae:	cb81                	beqz	a5,80000fbe <fdt_scan_helper+0x20c>
    80000fb0:	020b3583          	ld	a1,32(s6)
    80000fb4:	0828                	addi	a0,sp,24
    80000fb6:	9782                	jalr	a5
    80000fb8:	57fd                	li	a5,-1
    80000fba:	00f50563          	beq	a0,a5,80000fc4 <fdt_scan_helper+0x212>
    80000fbe:	8bea                	mv	s7,s10
    80000fc0:	4d05                	li	s10,1
    80000fc2:	b599                	j	80000e08 <fdt_scan_helper+0x56>
    80000fc4:	01ab8a63          	beq	s7,s10,80000fd8 <fdt_scan_helper+0x226>
    80000fc8:	040007b7          	lui	a5,0x4000
    80000fcc:	0b91                	addi	s7,s7,4
    80000fce:	fefbae23          	sw	a5,-4(s7)
    80000fd2:	ff7d1de3          	bne	s10,s7,80000fcc <fdt_scan_helper+0x21a>
    80000fd6:	b7e5                	j	80000fbe <fdt_scan_helper+0x20c>
    80000fd8:	4d05                	li	s10,1
    80000fda:	b53d                	j	80000e08 <fdt_scan_helper+0x56>
    80000fdc:	00006517          	auipc	a0,0x6
    80000fe0:	b3c50513          	addi	a0,a0,-1220 # 80006b18 <softfloat_countLeadingZeros8+0x1a0>
    80000fe4:	00006697          	auipc	a3,0x6
    80000fe8:	cfc68693          	addi	a3,a3,-772 # 80006ce0 <softfloat_countLeadingZeros8+0x368>
    80000fec:	03500613          	li	a2,53
    80000ff0:	00006597          	auipc	a1,0x6
    80000ff4:	b1058593          	addi	a1,a1,-1264 # 80006b00 <softfloat_countLeadingZeros8+0x188>
    80000ff8:	3f3000ef          	jal	ra,80001bea <printm>
    80000ffc:	6541                	lui	a0,0x10
    80000ffe:	157d                	addi	a0,a0,-1
    80001000:	45b000ef          	jal	ra,80001c5a <poweroff>

0000000080001004 <mem_open>:
    80001004:	852e                	mv	a0,a1
    80001006:	4661                	li	a2,24
    80001008:	4581                	li	a1,0
    8000100a:	2520506f          	j	8000625c <memset>

000000008000100e <hart_done>:
    8000100e:	619c                	ld	a5,0(a1)
    80001010:	1141                	addi	sp,sp,-16
    80001012:	e406                	sd	ra,8(sp)
    80001014:	00a78863          	beq	a5,a0,80001024 <hart_done+0x16>
    80001018:	6998                	ld	a4,16(a1)
    8000101a:	02a70c63          	beq	a4,a0,80001052 <hart_done+0x44>
    8000101e:	60a2                	ld	ra,8(sp)
    80001020:	0141                	addi	sp,sp,16
    80001022:	8082                	ret
    80001024:	4598                	lw	a4,8(a1)
    80001026:	fe0759e3          	bgez	a4,80001018 <hart_done+0xa>
    8000102a:	00006517          	auipc	a0,0x6
    8000102e:	aee50513          	addi	a0,a0,-1298 # 80006b18 <softfloat_countLeadingZeros8+0x1a0>
    80001032:	00006697          	auipc	a3,0x6
    80001036:	cd668693          	addi	a3,a3,-810 # 80006d08 <softfloat_countLeadingZeros8+0x390>
    8000103a:	10100613          	li	a2,257
    8000103e:	00006597          	auipc	a1,0x6
    80001042:	ac258593          	addi	a1,a1,-1342 # 80006b00 <softfloat_countLeadingZeros8+0x188>
    80001046:	3a5000ef          	jal	ra,80001bea <printm>
    8000104a:	6541                	lui	a0,0x10
    8000104c:	157d                	addi	a0,a0,-1
    8000104e:	40d000ef          	jal	ra,80001c5a <poweroff>
    80001052:	d7f1                	beqz	a5,8000101e <hart_done+0x10>
    80001054:	4dd8                	lw	a4,28(a1)
    80001056:	cf1d                	beqz	a4,80001094 <hart_done+0x86>
    80001058:	4d94                	lw	a3,24(a1)
    8000105a:	4785                	li	a5,1
    8000105c:	04f69763          	bne	a3,a5,800010aa <hart_done+0x9c>
    80001060:	459c                	lw	a5,8(a1)
    80001062:	469d                	li	a3,7
    80001064:	faf6cde3          	blt	a3,a5,8000101e <hart_done+0x10>
    80001068:	00009697          	auipc	a3,0x9
    8000106c:	f9868693          	addi	a3,a3,-104 # 8000a000 <hart_phandles>
    80001070:	078a                	slli	a5,a5,0x2
    80001072:	97b6                	add	a5,a5,a3
    80001074:	c398                	sw	a4,0(a5)
    80001076:	4588                	lw	a0,8(a1)
    80001078:	00012717          	auipc	a4,0x12
    8000107c:	fa070713          	addi	a4,a4,-96 # 80013018 <hart_mask>
    80001080:	6314                	ld	a3,0(a4)
    80001082:	4785                	li	a5,1
    80001084:	00a797bb          	sllw	a5,a5,a0
    80001088:	60a2                	ld	ra,8(sp)
    8000108a:	8fd5                	or	a5,a5,a3
    8000108c:	e31c                	sd	a5,0(a4)
    8000108e:	0141                	addi	sp,sp,16
    80001090:	7170006f          	j	80001fa6 <hls_init>
    80001094:	00006517          	auipc	a0,0x6
    80001098:	a8450513          	addi	a0,a0,-1404 # 80006b18 <softfloat_countLeadingZeros8+0x1a0>
    8000109c:	00006697          	auipc	a3,0x6
    800010a0:	c7c68693          	addi	a3,a3,-900 # 80006d18 <softfloat_countLeadingZeros8+0x3a0>
    800010a4:	10500613          	li	a2,261
    800010a8:	bf59                	j	8000103e <hart_done+0x30>
    800010aa:	00006517          	auipc	a0,0x6
    800010ae:	a6e50513          	addi	a0,a0,-1426 # 80006b18 <softfloat_countLeadingZeros8+0x1a0>
    800010b2:	00006697          	auipc	a3,0x6
    800010b6:	c7e68693          	addi	a3,a3,-898 # 80006d30 <softfloat_countLeadingZeros8+0x3b8>
    800010ba:	10600613          	li	a2,262
    800010be:	b741                	j	8000103e <hart_done+0x30>

00000000800010c0 <hart_filter_done>:
    800010c0:	419c                	lw	a5,0(a1)
    800010c2:	c7e1                	beqz	a5,8000118a <hart_filter_done+0xca>
    800010c4:	1101                	addi	sp,sp,-32
    800010c6:	e426                	sd	s1,8(sp)
    800010c8:	6584                	ld	s1,8(a1)
    800010ca:	e822                	sd	s0,16(sp)
    800010cc:	ec06                	sd	ra,24(sp)
    800010ce:	e04a                	sd	s2,0(sp)
    800010d0:	842e                	mv	s0,a1
    800010d2:	cccd                	beqz	s1,8000118c <hart_filter_done+0xcc>
    800010d4:	41dc                	lw	a5,4(a1)
    800010d6:	0c07cf63          	bltz	a5,800011b4 <hart_filter_done+0xf4>
    800010da:	0105b903          	ld	s2,16(a1)
    800010de:	04090363          	beqz	s2,80001124 <hart_filter_done+0x64>
    800010e2:	00006597          	auipc	a1,0x6
    800010e6:	c8e58593          	addi	a1,a1,-882 # 80006d70 <softfloat_countLeadingZeros8+0x3f8>
    800010ea:	8526                	mv	a0,s1
    800010ec:	1d0050ef          	jal	ra,800062bc <strcmp>
    800010f0:	e915                	bnez	a0,80001124 <hart_filter_done+0x64>
    800010f2:	00006597          	auipc	a1,0x6
    800010f6:	c8658593          	addi	a1,a1,-890 # 80006d78 <softfloat_countLeadingZeros8+0x400>
    800010fa:	854a                	mv	a0,s2
    800010fc:	1c0050ef          	jal	ra,800062bc <strcmp>
    80001100:	cd3d                	beqz	a0,8000117e <hart_filter_done+0xbe>
    80001102:	00006597          	auipc	a1,0x6
    80001106:	c8658593          	addi	a1,a1,-890 # 80006d88 <softfloat_countLeadingZeros8+0x410>
    8000110a:	854a                	mv	a0,s2
    8000110c:	1b0050ef          	jal	ra,800062bc <strcmp>
    80001110:	c53d                	beqz	a0,8000117e <hart_filter_done+0xbe>
    80001112:	85a6                	mv	a1,s1
    80001114:	864a                	mv	a2,s2
    80001116:	00006517          	auipc	a0,0x6
    8000111a:	c8250513          	addi	a0,a0,-894 # 80006d98 <softfloat_countLeadingZeros8+0x420>
    8000111e:	2cd000ef          	jal	ra,80001bea <printm>
    80001122:	6404                	ld	s1,8(s0)
    80001124:	00006797          	auipc	a5,0x6
    80001128:	cbc78793          	addi	a5,a5,-836 # 80006de0 <softfloat_countLeadingZeros8+0x468>
    8000112c:	0037c603          	lbu	a2,3(a5)
    80001130:	0047c683          	lbu	a3,4(a5)
    80001134:	0057c703          	lbu	a4,5(a5)
    80001138:	0007c803          	lbu	a6,0(a5)
    8000113c:	0017c503          	lbu	a0,1(a5)
    80001140:	0027c583          	lbu	a1,2(a5)
    80001144:	0067c783          	lbu	a5,6(a5)
    80001148:	00e482a3          	sb	a4,5(s1)
    8000114c:	01048023          	sb	a6,0(s1)
    80001150:	00a480a3          	sb	a0,1(s1)
    80001154:	00b48123          	sb	a1,2(s1)
    80001158:	00c481a3          	sb	a2,3(s1)
    8000115c:	00d48223          	sb	a3,4(s1)
    80001160:	00f48323          	sb	a5,6(s1)
    80001164:	641c                	ld	a5,8(s0)
    80001166:	6c14                	ld	a3,24(s0)
    80001168:	07000737          	lui	a4,0x7000
    8000116c:	fee7ac23          	sw	a4,-8(a5)
    80001170:	4050                	lw	a2,4(s0)
    80001172:	629c                	ld	a5,0(a3)
    80001174:	4705                	li	a4,1
    80001176:	00c7173b          	sllw	a4,a4,a2
    8000117a:	8fd9                	or	a5,a5,a4
    8000117c:	e29c                	sd	a5,0(a3)
    8000117e:	60e2                	ld	ra,24(sp)
    80001180:	6442                	ld	s0,16(sp)
    80001182:	64a2                	ld	s1,8(sp)
    80001184:	6902                	ld	s2,0(sp)
    80001186:	6105                	addi	sp,sp,32
    80001188:	8082                	ret
    8000118a:	8082                	ret
    8000118c:	00006517          	auipc	a0,0x6
    80001190:	98c50513          	addi	a0,a0,-1652 # 80006b18 <softfloat_countLeadingZeros8+0x1a0>
    80001194:	00006697          	auipc	a3,0x6
    80001198:	bb468693          	addi	a3,a3,-1100 # 80006d48 <softfloat_countLeadingZeros8+0x3d0>
    8000119c:	29e00613          	li	a2,670
    800011a0:	00006597          	auipc	a1,0x6
    800011a4:	96058593          	addi	a1,a1,-1696 # 80006b00 <softfloat_countLeadingZeros8+0x188>
    800011a8:	243000ef          	jal	ra,80001bea <printm>
    800011ac:	6541                	lui	a0,0x10
    800011ae:	157d                	addi	a0,a0,-1
    800011b0:	2ab000ef          	jal	ra,80001c5a <poweroff>
    800011b4:	00006517          	auipc	a0,0x6
    800011b8:	96450513          	addi	a0,a0,-1692 # 80006b18 <softfloat_countLeadingZeros8+0x1a0>
    800011bc:	00006697          	auipc	a3,0x6
    800011c0:	b9c68693          	addi	a3,a3,-1124 # 80006d58 <softfloat_countLeadingZeros8+0x3e0>
    800011c4:	29f00613          	li	a2,671
    800011c8:	00006597          	auipc	a1,0x6
    800011cc:	93858593          	addi	a1,a1,-1736 # 80006b00 <softfloat_countLeadingZeros8+0x188>
    800011d0:	21b000ef          	jal	ra,80001bea <printm>
    800011d4:	6541                	lui	a0,0x10
    800011d6:	157d                	addi	a0,a0,-1
    800011d8:	283000ef          	jal	ra,80001c5a <poweroff>

00000000800011dc <chosen_prop>:
    800011dc:	619c                	ld	a5,0(a1)
    800011de:	10078163          	beqz	a5,800012e0 <chosen_prop+0x104>
    800011e2:	1101                	addi	sp,sp,-32
    800011e4:	e04a                	sd	s2,0(sp)
    800011e6:	00853903          	ld	s2,8(a0) # 10008 <_ftext-0x7ffefff8>
    800011ea:	e822                	sd	s0,16(sp)
    800011ec:	e426                	sd	s1,8(sp)
    800011ee:	842e                	mv	s0,a1
    800011f0:	84aa                	mv	s1,a0
    800011f2:	00006597          	auipc	a1,0x6
    800011f6:	bf658593          	addi	a1,a1,-1034 # 80006de8 <softfloat_countLeadingZeros8+0x470>
    800011fa:	854a                	mv	a0,s2
    800011fc:	ec06                	sd	ra,24(sp)
    800011fe:	0be050ef          	jal	ra,800062bc <strcmp>
    80001202:	e525                	bnez	a0,8000126a <chosen_prop+0x8e>
    80001204:	609c                	ld	a5,0(s1)
    80001206:	6890                	ld	a2,16(s1)
    80001208:	639c                	ld	a5,0(a5)
    8000120a:	4b9c                	lw	a5,16(a5)
    8000120c:	0cf05e63          	blez	a5,800012e8 <chosen_prop+0x10c>
    80001210:	fff7859b          	addiw	a1,a5,-1
    80001214:	1582                	slli	a1,a1,0x20
    80001216:	9181                	srli	a1,a1,0x20
    80001218:	0585                	addi	a1,a1,1
    8000121a:	058a                	slli	a1,a1,0x2
    8000121c:	ff010837          	lui	a6,0xff010
    80001220:	00ff0537          	lui	a0,0xff0
    80001224:	95b2                	add	a1,a1,a2
    80001226:	4781                	li	a5,0
    80001228:	f0080813          	addi	a6,a6,-256 # ffffffffff00ff00 <_payload_end+0xffffffff7e8e9bd0>
    8000122c:	0ff50513          	addi	a0,a0,255 # ff00ff <_ftext-0x7f00ff01>
    80001230:	4218                	lw	a4,0(a2)
    80001232:	02079693          	slli	a3,a5,0x20
    80001236:	0611                	addi	a2,a2,4
    80001238:	0087179b          	slliw	a5,a4,0x8
    8000123c:	0087571b          	srliw	a4,a4,0x8
    80001240:	8f69                	and	a4,a4,a0
    80001242:	0107f7b3          	and	a5,a5,a6
    80001246:	8fd9                	or	a5,a5,a4
    80001248:	0107971b          	slliw	a4,a5,0x10
    8000124c:	0107d79b          	srliw	a5,a5,0x10
    80001250:	8fd9                	or	a5,a5,a4
    80001252:	1782                	slli	a5,a5,0x20
    80001254:	9381                	srli	a5,a5,0x20
    80001256:	97b6                	add	a5,a5,a3
    80001258:	fcb61ce3          	bne	a2,a1,80001230 <chosen_prop+0x54>
    8000125c:	e41c                	sd	a5,8(s0)
    8000125e:	60e2                	ld	ra,24(sp)
    80001260:	6442                	ld	s0,16(sp)
    80001262:	64a2                	ld	s1,8(sp)
    80001264:	6902                	ld	s2,0(sp)
    80001266:	6105                	addi	sp,sp,32
    80001268:	8082                	ret
    8000126a:	00006597          	auipc	a1,0x6
    8000126e:	b9658593          	addi	a1,a1,-1130 # 80006e00 <softfloat_countLeadingZeros8+0x488>
    80001272:	854a                	mv	a0,s2
    80001274:	048050ef          	jal	ra,800062bc <strcmp>
    80001278:	f17d                	bnez	a0,8000125e <chosen_prop+0x82>
    8000127a:	609c                	ld	a5,0(s1)
    8000127c:	6890                	ld	a2,16(s1)
    8000127e:	639c                	ld	a5,0(a5)
    80001280:	4b9c                	lw	a5,16(a5)
    80001282:	06f05063          	blez	a5,800012e2 <chosen_prop+0x106>
    80001286:	fff7859b          	addiw	a1,a5,-1
    8000128a:	1582                	slli	a1,a1,0x20
    8000128c:	9181                	srli	a1,a1,0x20
    8000128e:	0585                	addi	a1,a1,1
    80001290:	058a                	slli	a1,a1,0x2
    80001292:	ff010837          	lui	a6,0xff010
    80001296:	00ff0537          	lui	a0,0xff0
    8000129a:	95b2                	add	a1,a1,a2
    8000129c:	4781                	li	a5,0
    8000129e:	f0080813          	addi	a6,a6,-256 # ffffffffff00ff00 <_payload_end+0xffffffff7e8e9bd0>
    800012a2:	0ff50513          	addi	a0,a0,255 # ff00ff <_ftext-0x7f00ff01>
    800012a6:	4218                	lw	a4,0(a2)
    800012a8:	02079693          	slli	a3,a5,0x20
    800012ac:	0611                	addi	a2,a2,4
    800012ae:	0087179b          	slliw	a5,a4,0x8
    800012b2:	0087571b          	srliw	a4,a4,0x8
    800012b6:	8f69                	and	a4,a4,a0
    800012b8:	0107f7b3          	and	a5,a5,a6
    800012bc:	8fd9                	or	a5,a5,a4
    800012be:	0107971b          	slliw	a4,a5,0x10
    800012c2:	0107d79b          	srliw	a5,a5,0x10
    800012c6:	8fd9                	or	a5,a5,a4
    800012c8:	1782                	slli	a5,a5,0x20
    800012ca:	9381                	srli	a5,a5,0x20
    800012cc:	97b6                	add	a5,a5,a3
    800012ce:	fcb61ce3          	bne	a2,a1,800012a6 <chosen_prop+0xca>
    800012d2:	e81c                	sd	a5,16(s0)
    800012d4:	60e2                	ld	ra,24(sp)
    800012d6:	6442                	ld	s0,16(sp)
    800012d8:	64a2                	ld	s1,8(sp)
    800012da:	6902                	ld	s2,0(sp)
    800012dc:	6105                	addi	sp,sp,32
    800012de:	8082                	ret
    800012e0:	8082                	ret
    800012e2:	4781                	li	a5,0
    800012e4:	e81c                	sd	a5,16(s0)
    800012e6:	b7fd                	j	800012d4 <chosen_prop+0xf8>
    800012e8:	4781                	li	a5,0
    800012ea:	bf8d                	j	8000125c <chosen_prop+0x80>

00000000800012ec <fdt_scan>:
    800012ec:	4118                	lw	a4,0(a0)
    800012ee:	00ff0637          	lui	a2,0xff0
    800012f2:	ff010837          	lui	a6,0xff010
    800012f6:	0087579b          	srliw	a5,a4,0x8
    800012fa:	0ff60613          	addi	a2,a2,255 # ff00ff <_ftext-0x7f00ff01>
    800012fe:	0087171b          	slliw	a4,a4,0x8
    80001302:	f0080813          	addi	a6,a6,-256 # ffffffffff00ff00 <_payload_end+0xffffffff7e8e9bd0>
    80001306:	01077733          	and	a4,a4,a6
    8000130a:	8ff1                	and	a5,a5,a2
    8000130c:	8fd9                	or	a5,a5,a4
    8000130e:	0107971b          	slliw	a4,a5,0x10
    80001312:	0107d79b          	srliw	a5,a5,0x10
    80001316:	8fd9                	or	a5,a5,a4
    80001318:	d00e0737          	lui	a4,0xd00e0
    8000131c:	2781                	sext.w	a5,a5
    8000131e:	eed70713          	addi	a4,a4,-275 # ffffffffd00dfeed <_payload_end+0xffffffff4f9b9bbd>
    80001322:	02e79463          	bne	a5,a4,8000134a <fdt_scan+0x5e>
    80001326:	4d18                	lw	a4,24(a0)
    80001328:	46c5                	li	a3,17
    8000132a:	0087179b          	slliw	a5,a4,0x8
    8000132e:	0087571b          	srliw	a4,a4,0x8
    80001332:	8f71                	and	a4,a4,a2
    80001334:	0107f7b3          	and	a5,a5,a6
    80001338:	8fd9                	or	a5,a5,a4
    8000133a:	0107971b          	slliw	a4,a5,0x10
    8000133e:	0107d79b          	srliw	a5,a5,0x10
    80001342:	8fd9                	or	a5,a5,a4
    80001344:	2781                	sext.w	a5,a5
    80001346:	00f6f363          	bgeu	a3,a5,8000134c <fdt_scan+0x60>
    8000134a:	8082                	ret
    8000134c:	455c                	lw	a5,12(a0)
    8000134e:	00852883          	lw	a7,8(a0)
    80001352:	86ae                	mv	a3,a1
    80001354:	0087971b          	slliw	a4,a5,0x8
    80001358:	0087d59b          	srliw	a1,a5,0x8
    8000135c:	0088979b          	slliw	a5,a7,0x8
    80001360:	0088d89b          	srliw	a7,a7,0x8
    80001364:	01077733          	and	a4,a4,a6
    80001368:	8df1                	and	a1,a1,a2
    8000136a:	0107f833          	and	a6,a5,a6
    8000136e:	00c8f633          	and	a2,a7,a2
    80001372:	00b767b3          	or	a5,a4,a1
    80001376:	00c86633          	or	a2,a6,a2
    8000137a:	0107959b          	slliw	a1,a5,0x10
    8000137e:	0106171b          	slliw	a4,a2,0x10
    80001382:	0107d79b          	srliw	a5,a5,0x10
    80001386:	0106561b          	srliw	a2,a2,0x10
    8000138a:	8e59                	or	a2,a2,a4
    8000138c:	8fcd                	or	a5,a5,a1
    8000138e:	02061713          	slli	a4,a2,0x20
    80001392:	02079593          	slli	a1,a5,0x20
    80001396:	9181                	srli	a1,a1,0x20
    80001398:	9301                	srli	a4,a4,0x20
    8000139a:	95aa                	add	a1,a1,a0
    8000139c:	4601                	li	a2,0
    8000139e:	953a                	add	a0,a0,a4
    800013a0:	bc09                	j	80000db2 <fdt_scan_helper>

00000000800013a2 <fdt_size>:
    800013a2:	4118                	lw	a4,0(a0)
    800013a4:	ff010637          	lui	a2,0xff010
    800013a8:	00ff06b7          	lui	a3,0xff0
    800013ac:	0087179b          	slliw	a5,a4,0x8
    800013b0:	f0060613          	addi	a2,a2,-256 # ffffffffff00ff00 <_payload_end+0xffffffff7e8e9bd0>
    800013b4:	0087571b          	srliw	a4,a4,0x8
    800013b8:	0ff68693          	addi	a3,a3,255 # ff00ff <_ftext-0x7f00ff01>
    800013bc:	8f75                	and	a4,a4,a3
    800013be:	8ff1                	and	a5,a5,a2
    800013c0:	8fd9                	or	a5,a5,a4
    800013c2:	0107971b          	slliw	a4,a5,0x10
    800013c6:	0107d79b          	srliw	a5,a5,0x10
    800013ca:	8fd9                	or	a5,a5,a4
    800013cc:	d00e0737          	lui	a4,0xd00e0
    800013d0:	2781                	sext.w	a5,a5
    800013d2:	eed70713          	addi	a4,a4,-275 # ffffffffd00dfeed <_payload_end+0xffffffff4f9b9bbd>
    800013d6:	85aa                	mv	a1,a0
    800013d8:	04e79363          	bne	a5,a4,8000141e <fdt_size+0x7c>
    800013dc:	4d18                	lw	a4,24(a0)
    800013de:	4845                	li	a6,17
    800013e0:	4501                	li	a0,0
    800013e2:	0087179b          	slliw	a5,a4,0x8
    800013e6:	0087571b          	srliw	a4,a4,0x8
    800013ea:	8f75                	and	a4,a4,a3
    800013ec:	8ff1                	and	a5,a5,a2
    800013ee:	8fd9                	or	a5,a5,a4
    800013f0:	0107971b          	slliw	a4,a5,0x10
    800013f4:	0107d79b          	srliw	a5,a5,0x10
    800013f8:	8fd9                	or	a5,a5,a4
    800013fa:	2781                	sext.w	a5,a5
    800013fc:	02f86263          	bltu	a6,a5,80001420 <fdt_size+0x7e>
    80001400:	41dc                	lw	a5,4(a1)
    80001402:	0087951b          	slliw	a0,a5,0x8
    80001406:	0087d79b          	srliw	a5,a5,0x8
    8000140a:	8e69                	and	a2,a2,a0
    8000140c:	8efd                	and	a3,a3,a5
    8000140e:	8ed1                	or	a3,a3,a2
    80001410:	0106951b          	slliw	a0,a3,0x10
    80001414:	0106d69b          	srliw	a3,a3,0x10
    80001418:	8d55                	or	a0,a0,a3
    8000141a:	2501                	sext.w	a0,a0
    8000141c:	8082                	ret
    8000141e:	4501                	li	a0,0
    80001420:	8082                	ret

0000000080001422 <fdt_get_address>:
    80001422:	491c                	lw	a5,16(a0)
    80001424:	00063023          	sd	zero,0(a2)
    80001428:	06f05363          	blez	a5,8000148e <fdt_get_address+0x6c>
    8000142c:	fff7831b          	addiw	t1,a5,-1
    80001430:	02031893          	slli	a7,t1,0x20
    80001434:	0208d893          	srli	a7,a7,0x20
    80001438:	0885                	addi	a7,a7,1
    8000143a:	088a                	slli	a7,a7,0x2
    8000143c:	ff010eb7          	lui	t4,0xff010
    80001440:	00ff0e37          	lui	t3,0xff0
    80001444:	98ae                	add	a7,a7,a1
    80001446:	882e                	mv	a6,a1
    80001448:	4781                	li	a5,0
    8000144a:	f00e8e93          	addi	t4,t4,-256 # ffffffffff00ff00 <_payload_end+0xffffffff7e8e9bd0>
    8000144e:	0ffe0e13          	addi	t3,t3,255 # ff00ff <_ftext-0x7f00ff01>
    80001452:	00082703          	lw	a4,0(a6)
    80001456:	02079693          	slli	a3,a5,0x20
    8000145a:	0811                	addi	a6,a6,4
    8000145c:	0087179b          	slliw	a5,a4,0x8
    80001460:	0087571b          	srliw	a4,a4,0x8
    80001464:	01c77733          	and	a4,a4,t3
    80001468:	01d7f7b3          	and	a5,a5,t4
    8000146c:	8fd9                	or	a5,a5,a4
    8000146e:	0107971b          	slliw	a4,a5,0x10
    80001472:	0107d79b          	srliw	a5,a5,0x10
    80001476:	8fd9                	or	a5,a5,a4
    80001478:	1782                	slli	a5,a5,0x20
    8000147a:	9381                	srli	a5,a5,0x20
    8000147c:	97b6                	add	a5,a5,a3
    8000147e:	fd181ae3          	bne	a6,a7,80001452 <fdt_get_address+0x30>
    80001482:	0305                	addi	t1,t1,1
    80001484:	030a                	slli	t1,t1,0x2
    80001486:	00658533          	add	a0,a1,t1
    8000148a:	e21c                	sd	a5,0(a2)
    8000148c:	8082                	ret
    8000148e:	852e                	mv	a0,a1
    80001490:	8082                	ret

0000000080001492 <fdt_get_size>:
    80001492:	495c                	lw	a5,20(a0)
    80001494:	00063023          	sd	zero,0(a2)
    80001498:	06f05363          	blez	a5,800014fe <fdt_get_size+0x6c>
    8000149c:	fff7831b          	addiw	t1,a5,-1
    800014a0:	02031893          	slli	a7,t1,0x20
    800014a4:	0208d893          	srli	a7,a7,0x20
    800014a8:	0885                	addi	a7,a7,1
    800014aa:	088a                	slli	a7,a7,0x2
    800014ac:	ff010eb7          	lui	t4,0xff010
    800014b0:	00ff0e37          	lui	t3,0xff0
    800014b4:	98ae                	add	a7,a7,a1
    800014b6:	882e                	mv	a6,a1
    800014b8:	4781                	li	a5,0
    800014ba:	f00e8e93          	addi	t4,t4,-256 # ffffffffff00ff00 <_payload_end+0xffffffff7e8e9bd0>
    800014be:	0ffe0e13          	addi	t3,t3,255 # ff00ff <_ftext-0x7f00ff01>
    800014c2:	00082703          	lw	a4,0(a6)
    800014c6:	02079693          	slli	a3,a5,0x20
    800014ca:	0811                	addi	a6,a6,4
    800014cc:	0087179b          	slliw	a5,a4,0x8
    800014d0:	0087571b          	srliw	a4,a4,0x8
    800014d4:	01c77733          	and	a4,a4,t3
    800014d8:	01d7f7b3          	and	a5,a5,t4
    800014dc:	8fd9                	or	a5,a5,a4
    800014de:	0107971b          	slliw	a4,a5,0x10
    800014e2:	0107d79b          	srliw	a5,a5,0x10
    800014e6:	8fd9                	or	a5,a5,a4
    800014e8:	1782                	slli	a5,a5,0x20
    800014ea:	9381                	srli	a5,a5,0x20
    800014ec:	97b6                	add	a5,a5,a3
    800014ee:	fd181ae3          	bne	a6,a7,800014c2 <fdt_get_size+0x30>
    800014f2:	0305                	addi	t1,t1,1
    800014f4:	030a                	slli	t1,t1,0x2
    800014f6:	00658533          	add	a0,a1,t1
    800014fa:	e21c                	sd	a5,0(a2)
    800014fc:	8082                	ret
    800014fe:	852e                	mv	a0,a1
    80001500:	8082                	ret

0000000080001502 <fdt_get_value>:
    80001502:	691c                	ld	a5,16(a0)
    80001504:	1582                	slli	a1,a1,0x20
    80001506:	81f9                	srli	a1,a1,0x1e
    80001508:	95be                	add	a1,a1,a5
    8000150a:	4198                	lw	a4,0(a1)
    8000150c:	ff010537          	lui	a0,0xff010
    80001510:	f0050513          	addi	a0,a0,-256 # ffffffffff00ff00 <_payload_end+0xffffffff7e8e9bd0>
    80001514:	0087179b          	slliw	a5,a4,0x8
    80001518:	8fe9                	and	a5,a5,a0
    8000151a:	00ff0537          	lui	a0,0xff0
    8000151e:	0ff50513          	addi	a0,a0,255 # ff00ff <_ftext-0x7f00ff01>
    80001522:	0087571b          	srliw	a4,a4,0x8
    80001526:	8f69                	and	a4,a4,a0
    80001528:	8fd9                	or	a5,a5,a4
    8000152a:	0107951b          	slliw	a0,a5,0x10
    8000152e:	0107d79b          	srliw	a5,a5,0x10
    80001532:	8d5d                	or	a0,a0,a5
    80001534:	2501                	sext.w	a0,a0
    80001536:	8082                	ret

0000000080001538 <fdt_string_list_index>:
    80001538:	7179                	addi	sp,sp,-48
    8000153a:	4d1c                	lw	a5,24(a0)
    8000153c:	f022                	sd	s0,32(sp)
    8000153e:	6900                	ld	s0,16(a0)
    80001540:	e44e                	sd	s3,8(sp)
    80001542:	f406                	sd	ra,40(sp)
    80001544:	ec26                	sd	s1,24(sp)
    80001546:	e84a                	sd	s2,16(sp)
    80001548:	00f409b3          	add	s3,s0,a5
    8000154c:	02f05d63          	blez	a5,80001586 <fdt_string_list_index+0x4e>
    80001550:	892e                	mv	s2,a1
    80001552:	4481                	li	s1,0
    80001554:	a811                	j	80001568 <fdt_string_list_index+0x30>
    80001556:	54d040ef          	jal	ra,800062a2 <strlen>
    8000155a:	0505                	addi	a0,a0,1
    8000155c:	942a                	add	s0,s0,a0
    8000155e:	408987b3          	sub	a5,s3,s0
    80001562:	2485                	addiw	s1,s1,1
    80001564:	02f05163          	blez	a5,80001586 <fdt_string_list_index+0x4e>
    80001568:	85ca                	mv	a1,s2
    8000156a:	8522                	mv	a0,s0
    8000156c:	551040ef          	jal	ra,800062bc <strcmp>
    80001570:	87aa                	mv	a5,a0
    80001572:	8522                	mv	a0,s0
    80001574:	f3ed                	bnez	a5,80001556 <fdt_string_list_index+0x1e>
    80001576:	70a2                	ld	ra,40(sp)
    80001578:	7402                	ld	s0,32(sp)
    8000157a:	6942                	ld	s2,16(sp)
    8000157c:	69a2                	ld	s3,8(sp)
    8000157e:	8526                	mv	a0,s1
    80001580:	64e2                	ld	s1,24(sp)
    80001582:	6145                	addi	sp,sp,48
    80001584:	8082                	ret
    80001586:	70a2                	ld	ra,40(sp)
    80001588:	7402                	ld	s0,32(sp)
    8000158a:	54fd                	li	s1,-1
    8000158c:	6942                	ld	s2,16(sp)
    8000158e:	69a2                	ld	s3,8(sp)
    80001590:	8526                	mv	a0,s1
    80001592:	64e2                	ld	s1,24(sp)
    80001594:	6145                	addi	sp,sp,48
    80001596:	8082                	ret

0000000080001598 <clint_prop>:
    80001598:	1101                	addi	sp,sp,-32
    8000159a:	e04a                	sd	s2,0(sp)
    8000159c:	00853903          	ld	s2,8(a0)
    800015a0:	e822                	sd	s0,16(sp)
    800015a2:	e426                	sd	s1,8(sp)
    800015a4:	842e                	mv	s0,a1
    800015a6:	84aa                	mv	s1,a0
    800015a8:	00006597          	auipc	a1,0x6
    800015ac:	87058593          	addi	a1,a1,-1936 # 80006e18 <softfloat_countLeadingZeros8+0x4a0>
    800015b0:	854a                	mv	a0,s2
    800015b2:	ec06                	sd	ra,24(sp)
    800015b4:	509040ef          	jal	ra,800062bc <strcmp>
    800015b8:	e115                	bnez	a0,800015dc <clint_prop+0x44>
    800015ba:	00005597          	auipc	a1,0x5
    800015be:	51658593          	addi	a1,a1,1302 # 80006ad0 <softfloat_countLeadingZeros8+0x158>
    800015c2:	8526                	mv	a0,s1
    800015c4:	f75ff0ef          	jal	ra,80001538 <fdt_string_list_index>
    800015c8:	00054a63          	bltz	a0,800015dc <clint_prop+0x44>
    800015cc:	4785                	li	a5,1
    800015ce:	60e2                	ld	ra,24(sp)
    800015d0:	c01c                	sw	a5,0(s0)
    800015d2:	6442                	ld	s0,16(sp)
    800015d4:	64a2                	ld	s1,8(sp)
    800015d6:	6902                	ld	s2,0(sp)
    800015d8:	6105                	addi	sp,sp,32
    800015da:	8082                	ret
    800015dc:	00005597          	auipc	a1,0x5
    800015e0:	67c58593          	addi	a1,a1,1660 # 80006c58 <softfloat_countLeadingZeros8+0x2e0>
    800015e4:	854a                	mv	a0,s2
    800015e6:	4d7040ef          	jal	ra,800062bc <strcmp>
    800015ea:	e535                	bnez	a0,80001656 <clint_prop+0xbe>
    800015ec:	609c                	ld	a5,0(s1)
    800015ee:	6894                	ld	a3,16(s1)
    800015f0:	639c                	ld	a5,0(a5)
    800015f2:	00043423          	sd	zero,8(s0)
    800015f6:	4b9c                	lw	a5,16(a5)
    800015f8:	04f05963          	blez	a5,8000164a <clint_prop+0xb2>
    800015fc:	fff7859b          	addiw	a1,a5,-1
    80001600:	1582                	slli	a1,a1,0x20
    80001602:	9181                	srli	a1,a1,0x20
    80001604:	0585                	addi	a1,a1,1
    80001606:	058a                	slli	a1,a1,0x2
    80001608:	ff010837          	lui	a6,0xff010
    8000160c:	00ff0537          	lui	a0,0xff0
    80001610:	95b6                	add	a1,a1,a3
    80001612:	4781                	li	a5,0
    80001614:	f0080813          	addi	a6,a6,-256 # ffffffffff00ff00 <_payload_end+0xffffffff7e8e9bd0>
    80001618:	0ff50513          	addi	a0,a0,255 # ff00ff <_ftext-0x7f00ff01>
    8000161c:	4298                	lw	a4,0(a3)
    8000161e:	02079613          	slli	a2,a5,0x20
    80001622:	0691                	addi	a3,a3,4
    80001624:	0087179b          	slliw	a5,a4,0x8
    80001628:	0087571b          	srliw	a4,a4,0x8
    8000162c:	8f69                	and	a4,a4,a0
    8000162e:	0107f7b3          	and	a5,a5,a6
    80001632:	8fd9                	or	a5,a5,a4
    80001634:	0107971b          	slliw	a4,a5,0x10
    80001638:	0107d79b          	srliw	a5,a5,0x10
    8000163c:	8fd9                	or	a5,a5,a4
    8000163e:	1782                	slli	a5,a5,0x20
    80001640:	9381                	srli	a5,a5,0x20
    80001642:	97b2                	add	a5,a5,a2
    80001644:	fcb69ce3          	bne	a3,a1,8000161c <clint_prop+0x84>
    80001648:	e41c                	sd	a5,8(s0)
    8000164a:	60e2                	ld	ra,24(sp)
    8000164c:	6442                	ld	s0,16(sp)
    8000164e:	64a2                	ld	s1,8(sp)
    80001650:	6902                	ld	s2,0(sp)
    80001652:	6105                	addi	sp,sp,32
    80001654:	8082                	ret
    80001656:	00005597          	auipc	a1,0x5
    8000165a:	7d258593          	addi	a1,a1,2002 # 80006e28 <softfloat_countLeadingZeros8+0x4b0>
    8000165e:	854a                	mv	a0,s2
    80001660:	45d040ef          	jal	ra,800062bc <strcmp>
    80001664:	f17d                	bnez	a0,8000164a <clint_prop+0xb2>
    80001666:	6898                	ld	a4,16(s1)
    80001668:	4c9c                	lw	a5,24(s1)
    8000166a:	60e2                	ld	ra,24(sp)
    8000166c:	e818                	sd	a4,16(s0)
    8000166e:	cc1c                	sw	a5,24(s0)
    80001670:	6442                	ld	s0,16(sp)
    80001672:	64a2                	ld	s1,8(sp)
    80001674:	6902                	ld	s2,0(sp)
    80001676:	6105                	addi	sp,sp,32
    80001678:	8082                	ret

000000008000167a <plic_prop>:
    8000167a:	1101                	addi	sp,sp,-32
    8000167c:	e04a                	sd	s2,0(sp)
    8000167e:	00853903          	ld	s2,8(a0)
    80001682:	e822                	sd	s0,16(sp)
    80001684:	e426                	sd	s1,8(sp)
    80001686:	842e                	mv	s0,a1
    80001688:	84aa                	mv	s1,a0
    8000168a:	00005597          	auipc	a1,0x5
    8000168e:	78e58593          	addi	a1,a1,1934 # 80006e18 <softfloat_countLeadingZeros8+0x4a0>
    80001692:	854a                	mv	a0,s2
    80001694:	ec06                	sd	ra,24(sp)
    80001696:	427040ef          	jal	ra,800062bc <strcmp>
    8000169a:	e115                	bnez	a0,800016be <plic_prop+0x44>
    8000169c:	00005597          	auipc	a1,0x5
    800016a0:	7a458593          	addi	a1,a1,1956 # 80006e40 <softfloat_countLeadingZeros8+0x4c8>
    800016a4:	8526                	mv	a0,s1
    800016a6:	e93ff0ef          	jal	ra,80001538 <fdt_string_list_index>
    800016aa:	00054a63          	bltz	a0,800016be <plic_prop+0x44>
    800016ae:	4785                	li	a5,1
    800016b0:	60e2                	ld	ra,24(sp)
    800016b2:	c01c                	sw	a5,0(s0)
    800016b4:	6442                	ld	s0,16(sp)
    800016b6:	64a2                	ld	s1,8(sp)
    800016b8:	6902                	ld	s2,0(sp)
    800016ba:	6105                	addi	sp,sp,32
    800016bc:	8082                	ret
    800016be:	00005597          	auipc	a1,0x5
    800016c2:	59a58593          	addi	a1,a1,1434 # 80006c58 <softfloat_countLeadingZeros8+0x2e0>
    800016c6:	854a                	mv	a0,s2
    800016c8:	3f5040ef          	jal	ra,800062bc <strcmp>
    800016cc:	e535                	bnez	a0,80001738 <plic_prop+0xbe>
    800016ce:	609c                	ld	a5,0(s1)
    800016d0:	6894                	ld	a3,16(s1)
    800016d2:	639c                	ld	a5,0(a5)
    800016d4:	00043423          	sd	zero,8(s0)
    800016d8:	4b9c                	lw	a5,16(a5)
    800016da:	04f05963          	blez	a5,8000172c <plic_prop+0xb2>
    800016de:	fff7859b          	addiw	a1,a5,-1
    800016e2:	1582                	slli	a1,a1,0x20
    800016e4:	9181                	srli	a1,a1,0x20
    800016e6:	0585                	addi	a1,a1,1
    800016e8:	058a                	slli	a1,a1,0x2
    800016ea:	ff010837          	lui	a6,0xff010
    800016ee:	00ff0537          	lui	a0,0xff0
    800016f2:	95b6                	add	a1,a1,a3
    800016f4:	4781                	li	a5,0
    800016f6:	f0080813          	addi	a6,a6,-256 # ffffffffff00ff00 <_payload_end+0xffffffff7e8e9bd0>
    800016fa:	0ff50513          	addi	a0,a0,255 # ff00ff <_ftext-0x7f00ff01>
    800016fe:	4298                	lw	a4,0(a3)
    80001700:	02079613          	slli	a2,a5,0x20
    80001704:	0691                	addi	a3,a3,4
    80001706:	0087179b          	slliw	a5,a4,0x8
    8000170a:	0087571b          	srliw	a4,a4,0x8
    8000170e:	8f69                	and	a4,a4,a0
    80001710:	0107f7b3          	and	a5,a5,a6
    80001714:	8fd9                	or	a5,a5,a4
    80001716:	0107971b          	slliw	a4,a5,0x10
    8000171a:	0107d79b          	srliw	a5,a5,0x10
    8000171e:	8fd9                	or	a5,a5,a4
    80001720:	1782                	slli	a5,a5,0x20
    80001722:	9381                	srli	a5,a5,0x20
    80001724:	97b2                	add	a5,a5,a2
    80001726:	fcb69ce3          	bne	a3,a1,800016fe <plic_prop+0x84>
    8000172a:	e41c                	sd	a5,8(s0)
    8000172c:	60e2                	ld	ra,24(sp)
    8000172e:	6442                	ld	s0,16(sp)
    80001730:	64a2                	ld	s1,8(sp)
    80001732:	6902                	ld	s2,0(sp)
    80001734:	6105                	addi	sp,sp,32
    80001736:	8082                	ret
    80001738:	00005597          	auipc	a1,0x5
    8000173c:	6f058593          	addi	a1,a1,1776 # 80006e28 <softfloat_countLeadingZeros8+0x4b0>
    80001740:	854a                	mv	a0,s2
    80001742:	37b040ef          	jal	ra,800062bc <strcmp>
    80001746:	c129                	beqz	a0,80001788 <plic_prop+0x10e>
    80001748:	00005597          	auipc	a1,0x5
    8000174c:	70858593          	addi	a1,a1,1800 # 80006e50 <softfloat_countLeadingZeros8+0x4d8>
    80001750:	854a                	mv	a0,s2
    80001752:	36b040ef          	jal	ra,800062bc <strcmp>
    80001756:	f979                	bnez	a0,8000172c <plic_prop+0xb2>
    80001758:	689c                	ld	a5,16(s1)
    8000175a:	ff0106b7          	lui	a3,0xff010
    8000175e:	f0068693          	addi	a3,a3,-256 # ffffffffff00ff00 <_payload_end+0xffffffff7e8e9bd0>
    80001762:	4398                	lw	a4,0(a5)
    80001764:	0087179b          	slliw	a5,a4,0x8
    80001768:	8ff5                	and	a5,a5,a3
    8000176a:	00ff06b7          	lui	a3,0xff0
    8000176e:	0087571b          	srliw	a4,a4,0x8
    80001772:	0ff68693          	addi	a3,a3,255 # ff00ff <_ftext-0x7f00ff01>
    80001776:	8f75                	and	a4,a4,a3
    80001778:	8fd9                	or	a5,a5,a4
    8000177a:	0107971b          	slliw	a4,a5,0x10
    8000177e:	0107d79b          	srliw	a5,a5,0x10
    80001782:	8fd9                	or	a5,a5,a4
    80001784:	d01c                	sw	a5,32(s0)
    80001786:	b75d                	j	8000172c <plic_prop+0xb2>
    80001788:	6898                	ld	a4,16(s1)
    8000178a:	4c9c                	lw	a5,24(s1)
    8000178c:	60e2                	ld	ra,24(sp)
    8000178e:	e818                	sd	a4,16(s0)
    80001790:	cc1c                	sw	a5,24(s0)
    80001792:	6442                	ld	s0,16(sp)
    80001794:	64a2                	ld	s1,8(sp)
    80001796:	6902                	ld	s2,0(sp)
    80001798:	6105                	addi	sp,sp,32
    8000179a:	8082                	ret

000000008000179c <compat_prop>:
    8000179c:	1101                	addi	sp,sp,-32
    8000179e:	e822                	sd	s0,16(sp)
    800017a0:	842a                	mv	s0,a0
    800017a2:	6508                	ld	a0,8(a0)
    800017a4:	e426                	sd	s1,8(sp)
    800017a6:	84ae                	mv	s1,a1
    800017a8:	00005597          	auipc	a1,0x5
    800017ac:	67058593          	addi	a1,a1,1648 # 80006e18 <softfloat_countLeadingZeros8+0x4a0>
    800017b0:	ec06                	sd	ra,24(sp)
    800017b2:	30b040ef          	jal	ra,800062bc <strcmp>
    800017b6:	ed01                	bnez	a0,800017ce <compat_prop+0x32>
    800017b8:	608c                	ld	a1,0(s1)
    800017ba:	8522                	mv	a0,s0
    800017bc:	d7dff0ef          	jal	ra,80001538 <fdt_string_list_index>
    800017c0:	00054763          	bltz	a0,800017ce <compat_prop+0x32>
    800017c4:	449c                	lw	a5,8(s1)
    800017c6:	44d8                	lw	a4,12(s1)
    800017c8:	00e7d363          	bge	a5,a4,800017ce <compat_prop+0x32>
    800017cc:	c4dc                	sw	a5,12(s1)
    800017ce:	60e2                	ld	ra,24(sp)
    800017d0:	6442                	ld	s0,16(sp)
    800017d2:	64a2                	ld	s1,8(sp)
    800017d4:	6105                	addi	sp,sp,32
    800017d6:	8082                	ret

00000000800017d8 <query_mem>:
    800017d8:	715d                	addi	sp,sp,-80
    800017da:	00000797          	auipc	a5,0x0
    800017de:	82a78793          	addi	a5,a5,-2006 # 80001004 <mem_open>
    800017e2:	ec3e                	sd	a5,24(sp)
    800017e4:	fffff797          	auipc	a5,0xfffff
    800017e8:	2ac78793          	addi	a5,a5,684 # 80000a90 <mem_prop>
    800017ec:	f03e                	sd	a5,32(sp)
    800017ee:	082c                	addi	a1,sp,24
    800017f0:	fffff797          	auipc	a5,0xfffff
    800017f4:	12c78793          	addi	a5,a5,300 # 8000091c <mem_done>
    800017f8:	f43e                	sd	a5,40(sp)
    800017fa:	e486                	sd	ra,72(sp)
    800017fc:	00012797          	auipc	a5,0x12
    80001800:	8207ba23          	sd	zero,-1996(a5) # 80013030 <mem_size>
    80001804:	f802                	sd	zero,48(sp)
    80001806:	fc0a                	sd	sp,56(sp)
    80001808:	ae5ff0ef          	jal	ra,800012ec <fdt_scan>
    8000180c:	00012797          	auipc	a5,0x12
    80001810:	8247b783          	ld	a5,-2012(a5) # 80013030 <mem_size>
    80001814:	c781                	beqz	a5,8000181c <query_mem+0x44>
    80001816:	60a6                	ld	ra,72(sp)
    80001818:	6161                	addi	sp,sp,80
    8000181a:	8082                	ret
    8000181c:	00005517          	auipc	a0,0x5
    80001820:	2fc50513          	addi	a0,a0,764 # 80006b18 <softfloat_countLeadingZeros8+0x1a0>
    80001824:	00005697          	auipc	a3,0x5
    80001828:	63c68693          	addi	a3,a3,1596 # 80006e60 <softfloat_countLeadingZeros8+0x4e8>
    8000182c:	0cc00613          	li	a2,204
    80001830:	00005597          	auipc	a1,0x5
    80001834:	2d058593          	addi	a1,a1,720 # 80006b00 <softfloat_countLeadingZeros8+0x188>
    80001838:	3b2000ef          	jal	ra,80001bea <printm>
    8000183c:	6541                	lui	a0,0x10
    8000183e:	157d                	addi	a0,a0,-1
    80001840:	41a000ef          	jal	ra,80001c5a <poweroff>

0000000080001844 <query_harts>:
    80001844:	711d                	addi	sp,sp,-96
    80001846:	fffff717          	auipc	a4,0xfffff
    8000184a:	c2a70713          	addi	a4,a4,-982 # 80000470 <hart_open>
    8000184e:	f43a                	sd	a4,40(sp)
    80001850:	fffff717          	auipc	a4,0xfffff
    80001854:	2ce70713          	addi	a4,a4,718 # 80000b1e <hart_prop>
    80001858:	f83a                	sd	a4,48(sp)
    8000185a:	fffff717          	auipc	a4,0xfffff
    8000185e:	7b470713          	addi	a4,a4,1972 # 8000100e <hart_done>
    80001862:	003c                	addi	a5,sp,8
    80001864:	fc3a                	sd	a4,56(sp)
    80001866:	102c                	addi	a1,sp,40
    80001868:	fffff717          	auipc	a4,0xfffff
    8000186c:	c1e70713          	addi	a4,a4,-994 # 80000486 <hart_close>
    80001870:	ec86                	sd	ra,88(sp)
    80001872:	e402                	sd	zero,8(sp)
    80001874:	e0ba                	sd	a4,64(sp)
    80001876:	e4be                	sd	a5,72(sp)
    80001878:	e802                	sd	zero,16(sp)
    8000187a:	ec02                	sd	zero,24(sp)
    8000187c:	f002                	sd	zero,32(sp)
    8000187e:	a6fff0ef          	jal	ra,800012ec <fdt_scan>
    80001882:	f1402773          	csrr	a4,mhartid
    80001886:	00011797          	auipc	a5,0x11
    8000188a:	7927b783          	ld	a5,1938(a5) # 80013018 <hart_mask>
    8000188e:	00e7d7b3          	srl	a5,a5,a4
    80001892:	c781                	beqz	a5,8000189a <query_harts+0x56>
    80001894:	60e6                	ld	ra,88(sp)
    80001896:	6125                	addi	sp,sp,96
    80001898:	8082                	ret
    8000189a:	00005517          	auipc	a0,0x5
    8000189e:	27e50513          	addi	a0,a0,638 # 80006b18 <softfloat_countLeadingZeros8+0x1a0>
    800018a2:	00005697          	auipc	a3,0x5
    800018a6:	5ce68693          	addi	a3,a3,1486 # 80006e70 <softfloat_countLeadingZeros8+0x4f8>
    800018aa:	12800613          	li	a2,296
    800018ae:	00005597          	auipc	a1,0x5
    800018b2:	25258593          	addi	a1,a1,594 # 80006b00 <softfloat_countLeadingZeros8+0x188>
    800018b6:	334000ef          	jal	ra,80001bea <printm>
    800018ba:	6541                	lui	a0,0x10
    800018bc:	157d                	addi	a0,a0,-1
    800018be:	39c000ef          	jal	ra,80001c5a <poweroff>

00000000800018c2 <query_clint>:
    800018c2:	711d                	addi	sp,sp,-96
    800018c4:	fffff797          	auipc	a5,0xfffff
    800018c8:	be478793          	addi	a5,a5,-1052 # 800004a8 <clint_open>
    800018cc:	f43e                	sd	a5,40(sp)
    800018ce:	00000797          	auipc	a5,0x0
    800018d2:	cca78793          	addi	a5,a5,-822 # 80001598 <clint_prop>
    800018d6:	f83e                	sd	a5,48(sp)
    800018d8:	fffff797          	auipc	a5,0xfffff
    800018dc:	c9a78793          	addi	a5,a5,-870 # 80000572 <clint_done>
    800018e0:	fc3e                	sd	a5,56(sp)
    800018e2:	102c                	addi	a1,sp,40
    800018e4:	003c                	addi	a5,sp,8
    800018e6:	e4be                	sd	a5,72(sp)
    800018e8:	ec86                	sd	ra,88(sp)
    800018ea:	e082                	sd	zero,64(sp)
    800018ec:	d202                	sw	zero,36(sp)
    800018ee:	9ffff0ef          	jal	ra,800012ec <fdt_scan>
    800018f2:	5792                	lw	a5,36(sp)
    800018f4:	c781                	beqz	a5,800018fc <query_clint+0x3a>
    800018f6:	60e6                	ld	ra,88(sp)
    800018f8:	6125                	addi	sp,sp,96
    800018fa:	8082                	ret
    800018fc:	00005517          	auipc	a0,0x5
    80001900:	21c50513          	addi	a0,a0,540 # 80006b18 <softfloat_countLeadingZeros8+0x1a0>
    80001904:	00005697          	auipc	a3,0x5
    80001908:	59468693          	addi	a3,a3,1428 # 80006e98 <softfloat_countLeadingZeros8+0x520>
    8000190c:	17500613          	li	a2,373
    80001910:	00005597          	auipc	a1,0x5
    80001914:	1f058593          	addi	a1,a1,496 # 80006b00 <softfloat_countLeadingZeros8+0x188>
    80001918:	2d2000ef          	jal	ra,80001bea <printm>
    8000191c:	6541                	lui	a0,0x10
    8000191e:	157d                	addi	a0,a0,-1
    80001920:	33a000ef          	jal	ra,80001c5a <poweroff>

0000000080001924 <query_plic>:
    80001924:	711d                	addi	sp,sp,-96
    80001926:	fffff797          	auipc	a5,0xfffff
    8000192a:	b9078793          	addi	a5,a5,-1136 # 800004b6 <plic_open>
    8000192e:	e03e                	sd	a5,0(sp)
    80001930:	00000797          	auipc	a5,0x0
    80001934:	d4a78793          	addi	a5,a5,-694 # 8000167a <plic_prop>
    80001938:	e43e                	sd	a5,8(sp)
    8000193a:	fffff797          	auipc	a5,0xfffff
    8000193e:	d9678793          	addi	a5,a5,-618 # 800006d0 <plic_done>
    80001942:	e83e                	sd	a5,16(sp)
    80001944:	858a                	mv	a1,sp
    80001946:	103c                	addi	a5,sp,40
    80001948:	ec86                	sd	ra,88(sp)
    8000194a:	ec02                	sd	zero,24(sp)
    8000194c:	f03e                	sd	a5,32(sp)
    8000194e:	c282                	sw	zero,68(sp)
    80001950:	99dff0ef          	jal	ra,800012ec <fdt_scan>
    80001954:	60e6                	ld	ra,88(sp)
    80001956:	6125                	addi	sp,sp,96
    80001958:	8082                	ret

000000008000195a <filter_plic>:
    8000195a:	711d                	addi	sp,sp,-96
    8000195c:	fffff797          	auipc	a5,0xfffff
    80001960:	b5a78793          	addi	a5,a5,-1190 # 800004b6 <plic_open>
    80001964:	e03e                	sd	a5,0(sp)
    80001966:	00000797          	auipc	a5,0x0
    8000196a:	d1478793          	addi	a5,a5,-748 # 8000167a <plic_prop>
    8000196e:	e43e                	sd	a5,8(sp)
    80001970:	fffff797          	auipc	a5,0xfffff
    80001974:	b5478793          	addi	a5,a5,-1196 # 800004c4 <plic_redact>
    80001978:	e83e                	sd	a5,16(sp)
    8000197a:	858a                	mv	a1,sp
    8000197c:	103c                	addi	a5,sp,40
    8000197e:	ec86                	sd	ra,88(sp)
    80001980:	ec02                	sd	zero,24(sp)
    80001982:	f03e                	sd	a5,32(sp)
    80001984:	c282                	sw	zero,68(sp)
    80001986:	967ff0ef          	jal	ra,800012ec <fdt_scan>
    8000198a:	60e6                	ld	ra,88(sp)
    8000198c:	6125                	addi	sp,sp,96
    8000198e:	8082                	ret

0000000080001990 <filter_compat>:
    80001990:	715d                	addi	sp,sp,-80
    80001992:	fffff717          	auipc	a4,0xfffff
    80001996:	b9870713          	addi	a4,a4,-1128 # 8000052a <compat_open>
    8000199a:	87ae                	mv	a5,a1
    8000199c:	ec3a                	sd	a4,24(sp)
    8000199e:	00000717          	auipc	a4,0x0
    800019a2:	dfe70713          	addi	a4,a4,-514 # 8000179c <compat_prop>
    800019a6:	f03a                	sd	a4,32(sp)
    800019a8:	e43e                	sd	a5,8(sp)
    800019aa:	fffff717          	auipc	a4,0xfffff
    800019ae:	b8870713          	addi	a4,a4,-1144 # 80000532 <compat_close>
    800019b2:	3e700793          	li	a5,999
    800019b6:	f83a                	sd	a4,48(sp)
    800019b8:	082c                	addi	a1,sp,24
    800019ba:	0038                	addi	a4,sp,8
    800019bc:	1782                	slli	a5,a5,0x20
    800019be:	e486                	sd	ra,72(sp)
    800019c0:	f402                	sd	zero,40(sp)
    800019c2:	fc3a                	sd	a4,56(sp)
    800019c4:	e83e                	sd	a5,16(sp)
    800019c6:	927ff0ef          	jal	ra,800012ec <fdt_scan>
    800019ca:	60a6                	ld	ra,72(sp)
    800019cc:	6161                	addi	sp,sp,80
    800019ce:	8082                	ret

00000000800019d0 <query_chosen>:
    800019d0:	715d                	addi	sp,sp,-80
    800019d2:	fffff797          	auipc	a5,0xfffff
    800019d6:	12478793          	addi	a5,a5,292 # 80000af6 <chosen_open>
    800019da:	ec3e                	sd	a5,24(sp)
    800019dc:	fffff797          	auipc	a5,0xfffff
    800019e0:	b7278793          	addi	a5,a5,-1166 # 8000054e <chosen_close>
    800019e4:	f83e                	sd	a5,48(sp)
    800019e6:	082c                	addi	a1,sp,24
    800019e8:	fffff797          	auipc	a5,0xfffff
    800019ec:	7f478793          	addi	a5,a5,2036 # 800011dc <chosen_prop>
    800019f0:	e486                	sd	ra,72(sp)
    800019f2:	f03e                	sd	a5,32(sp)
    800019f4:	f402                	sd	zero,40(sp)
    800019f6:	e002                	sd	zero,0(sp)
    800019f8:	fc0a                	sd	sp,56(sp)
    800019fa:	e402                	sd	zero,8(sp)
    800019fc:	e802                	sd	zero,16(sp)
    800019fe:	8efff0ef          	jal	ra,800012ec <fdt_scan>
    80001a02:	67a2                	ld	a5,8(sp)
    80001a04:	60a6                	ld	ra,72(sp)
    80001a06:	00011717          	auipc	a4,0x11
    80001a0a:	64f73523          	sd	a5,1610(a4) # 80013050 <kernel_start>
    80001a0e:	67c2                	ld	a5,16(sp)
    80001a10:	00011717          	auipc	a4,0x11
    80001a14:	62f73423          	sd	a5,1576(a4) # 80013038 <kernel_end>
    80001a18:	6161                	addi	sp,sp,80
    80001a1a:	8082                	ret

0000000080001a1c <filter_harts>:
    80001a1c:	711d                	addi	sp,sp,-96
    80001a1e:	fffff717          	auipc	a4,0xfffff
    80001a22:	b4470713          	addi	a4,a4,-1212 # 80000562 <hart_filter_open>
    80001a26:	f43a                	sd	a4,40(sp)
    80001a28:	fffff717          	auipc	a4,0xfffff
    80001a2c:	29a70713          	addi	a4,a4,666 # 80000cc2 <hart_filter_prop>
    80001a30:	ec86                	sd	ra,88(sp)
    80001a32:	f83a                	sd	a4,48(sp)
    80001a34:	fffff717          	auipc	a4,0xfffff
    80001a38:	68c70713          	addi	a4,a4,1676 # 800010c0 <hart_filter_done>
    80001a3c:	87ae                	mv	a5,a1
    80001a3e:	fc3a                	sd	a4,56(sp)
    80001a40:	0005b023          	sd	zero,0(a1)
    80001a44:	0038                	addi	a4,sp,8
    80001a46:	102c                	addi	a1,sp,40
    80001a48:	e082                	sd	zero,64(sp)
    80001a4a:	e4ba                	sd	a4,72(sp)
    80001a4c:	f03e                	sd	a5,32(sp)
    80001a4e:	89fff0ef          	jal	ra,800012ec <fdt_scan>
    80001a52:	60e6                	ld	ra,88(sp)
    80001a54:	6125                	addi	sp,sp,96
    80001a56:	8082                	ret

0000000080001a58 <send_ipi_many>:
    80001a58:	88ae                	mv	a7,a1
    80001a5a:	00011817          	auipc	a6,0x11
    80001a5e:	5be83803          	ld	a6,1470(a6) # 80013018 <hart_mask>
    80001a62:	cd01                	beqz	a0,80001a7a <send_ipi_many+0x22>
    80001a64:	34102673          	csrr	a2,mepc
    80001a68:	000205b7          	lui	a1,0x20
    80001a6c:	3005a6f3          	csrrs	a3,mstatus,a1
    80001a70:	611c                	ld	a5,0(a0)
    80001a72:	30069073          	csrw	mstatus,a3
    80001a76:	00f87833          	and	a6,a6,a5
    80001a7a:	8742                	mv	a4,a6
    80001a7c:	4681                	li	a3,0
    80001a7e:	0c080c63          	beqz	a6,80001b56 <send_ipi_many+0xfe>
    80001a82:	6505                	lui	a0,0x1
    80001a84:	950a                	add	a0,a0,sp
    80001a86:	77fd                	lui	a5,0xfffff
    80001a88:	00011317          	auipc	t1,0x11
    80001a8c:	58830313          	addi	t1,t1,1416 # 80013010 <disabled_hart_mask>
    80001a90:	8d7d                	and	a0,a0,a5
    80001a92:	4e05                	li	t3,1
    80001a94:	f14025f3          	csrr	a1,mhartid
    80001a98:	a021                	j	80001aa0 <send_ipi_many+0x48>
    80001a9a:	8305                	srli	a4,a4,0x1
    80001a9c:	0685                	addi	a3,a3,1
    80001a9e:	cf0d                	beqz	a4,80001ad8 <send_ipi_many+0x80>
    80001aa0:	00177793          	andi	a5,a4,1
    80001aa4:	dbfd                	beqz	a5,80001a9a <send_ipi_many+0x42>
    80001aa6:	00033603          	ld	a2,0(t1)
    80001aaa:	40b687b3          	sub	a5,a3,a1
    80001aae:	07b2                	slli	a5,a5,0xc
    80001ab0:	40d65633          	sra	a2,a2,a3
    80001ab4:	8a05                	andi	a2,a2,1
    80001ab6:	97aa                	add	a5,a5,a0
    80001ab8:	f26d                	bnez	a2,80001a9a <send_ipi_many+0x42>
    80001aba:	fc878613          	addi	a2,a5,-56 # ffffffffffffefc8 <_payload_end+0xffffffff7f8d8c98>
    80001abe:	0f50000f          	fence	iorw,ow
    80001ac2:	4516202f          	amoor.w.aq	zero,a7,(a2)
    80001ac6:	0ff0000f          	fence
    80001aca:	fc07b783          	ld	a5,-64(a5)
    80001ace:	8305                	srli	a4,a4,0x1
    80001ad0:	0685                	addi	a3,a3,1
    80001ad2:	01c7a023          	sw	t3,0(a5)
    80001ad6:	f769                	bnez	a4,80001aa0 <send_ipi_many+0x48>
    80001ad8:	4785                	li	a5,1
    80001ada:	06f88e63          	beq	a7,a5,80001b56 <send_ipi_many+0xfe>
    80001ade:	6505                	lui	a0,0x1
    80001ae0:	950a                	add	a0,a0,sp
    80001ae2:	77fd                	lui	a5,0xfffff
    80001ae4:	f1402373          	csrr	t1,mhartid
    80001ae8:	4601                	li	a2,0
    80001aea:	8d7d                	and	a0,a0,a5
    80001aec:	4881                	li	a7,0
    80001aee:	8e1a                	mv	t3,t1
    80001af0:	a031                	j	80001afc <send_ipi_many+0xa4>
    80001af2:	00185813          	srli	a6,a6,0x1
    80001af6:	0705                	addi	a4,a4,1
    80001af8:	04080463          	beqz	a6,80001b40 <send_ipi_many+0xe8>
    80001afc:	00187793          	andi	a5,a6,1
    80001b00:	dbed                	beqz	a5,80001af2 <send_ipi_many+0x9a>
    80001b02:	406707b3          	sub	a5,a4,t1
    80001b06:	07b2                	slli	a5,a5,0xc
    80001b08:	97aa                	add	a5,a5,a0
    80001b0a:	fc07b783          	ld	a5,-64(a5) # ffffffffffffefc0 <_payload_end+0xffffffff7f8d8c90>
    80001b0e:	439c                	lw	a5,0(a5)
    80001b10:	2781                	sext.w	a5,a5
    80001b12:	d3e5                	beqz	a5,80001af2 <send_ipi_many+0x9a>
    80001b14:	41c705b3          	sub	a1,a4,t3
    80001b18:	05b2                	slli	a1,a1,0xc
    80001b1a:	95aa                	add	a1,a1,a0
    80001b1c:	fc053683          	ld	a3,-64(a0) # fc0 <_ftext-0x7ffff040>
    80001b20:	87c6                	mv	a5,a7
    80001b22:	0cf6a7af          	amoswap.w.aq	a5,a5,(a3)
    80001b26:	fc05b683          	ld	a3,-64(a1) # 1ffc0 <_ftext-0x7ffe0040>
    80001b2a:	8fd1                	or	a5,a5,a2
    80001b2c:	0007861b          	sext.w	a2,a5
    80001b30:	429c                	lw	a5,0(a3)
    80001b32:	2781                	sext.w	a5,a5
    80001b34:	f7e5                	bnez	a5,80001b1c <send_ipi_many+0xc4>
    80001b36:	00185813          	srli	a6,a6,0x1
    80001b3a:	0705                	addi	a4,a4,1
    80001b3c:	fc0810e3          	bnez	a6,80001afc <send_ipi_many+0xa4>
    80001b40:	ca19                	beqz	a2,80001b56 <send_ipi_many+0xfe>
    80001b42:	6785                	lui	a5,0x1
    80001b44:	978a                	add	a5,a5,sp
    80001b46:	777d                	lui	a4,0xfffff
    80001b48:	8ff9                	and	a5,a5,a4
    80001b4a:	fc07b783          	ld	a5,-64(a5) # fc0 <_ftext-0x7ffff040>
    80001b4e:	c390                	sw	a2,0(a5)
    80001b50:	0ff0000f          	fence
    80001b54:	8082                	ret
    80001b56:	8082                	ret

0000000080001b58 <mcall_console_putchar>:
    80001b58:	1141                	addi	sp,sp,-16
    80001b5a:	e406                	sd	ra,8(sp)
    80001b5c:	00011797          	auipc	a5,0x11
    80001b60:	50c7b783          	ld	a5,1292(a5) # 80013068 <uart>
    80001b64:	c799                	beqz	a5,80001b72 <mcall_console_putchar+0x1a>
    80001b66:	10b000ef          	jal	ra,80002470 <uart_putchar>
    80001b6a:	60a2                	ld	ra,8(sp)
    80001b6c:	4501                	li	a0,0
    80001b6e:	0141                	addi	sp,sp,16
    80001b70:	8082                	ret
    80001b72:	00011797          	auipc	a5,0x11
    80001b76:	4fe7b783          	ld	a5,1278(a5) # 80013070 <uart16550>
    80001b7a:	c799                	beqz	a5,80001b88 <mcall_console_putchar+0x30>
    80001b7c:	33b000ef          	jal	ra,800026b6 <uart16550_putchar>
    80001b80:	60a2                	ld	ra,8(sp)
    80001b82:	4501                	li	a0,0
    80001b84:	0141                	addi	sp,sp,16
    80001b86:	8082                	ret
    80001b88:	00011797          	auipc	a5,0x11
    80001b8c:	4d07b783          	ld	a5,1232(a5) # 80013058 <htif>
    80001b90:	dfe9                	beqz	a5,80001b6a <mcall_console_putchar+0x12>
    80001b92:	79a000ef          	jal	ra,8000232c <htif_console_putchar>
    80001b96:	bfd1                	j	80001b6a <mcall_console_putchar+0x12>

0000000080001b98 <putstring>:
    80001b98:	1141                	addi	sp,sp,-16
    80001b9a:	e022                	sd	s0,0(sp)
    80001b9c:	e406                	sd	ra,8(sp)
    80001b9e:	842a                	mv	s0,a0
    80001ba0:	00054503          	lbu	a0,0(a0)
    80001ba4:	c519                	beqz	a0,80001bb2 <putstring+0x1a>
    80001ba6:	0405                	addi	s0,s0,1
    80001ba8:	fb1ff0ef          	jal	ra,80001b58 <mcall_console_putchar>
    80001bac:	00044503          	lbu	a0,0(s0)
    80001bb0:	f97d                	bnez	a0,80001ba6 <putstring+0xe>
    80001bb2:	60a2                	ld	ra,8(sp)
    80001bb4:	6402                	ld	s0,0(sp)
    80001bb6:	0141                	addi	sp,sp,16
    80001bb8:	8082                	ret

0000000080001bba <vprintm>:
    80001bba:	716d                	addi	sp,sp,-272
    80001bbc:	862a                	mv	a2,a0
    80001bbe:	86ae                	mv	a3,a1
    80001bc0:	850a                	mv	a0,sp
    80001bc2:	10000593          	li	a1,256
    80001bc6:	e606                	sd	ra,264(sp)
    80001bc8:	e222                	sd	s0,256(sp)
    80001bca:	390040ef          	jal	ra,80005f5a <vsnprintf>
    80001bce:	00014503          	lbu	a0,0(sp)
    80001bd2:	c901                	beqz	a0,80001be2 <vprintm+0x28>
    80001bd4:	840a                	mv	s0,sp
    80001bd6:	0405                	addi	s0,s0,1
    80001bd8:	f81ff0ef          	jal	ra,80001b58 <mcall_console_putchar>
    80001bdc:	00044503          	lbu	a0,0(s0)
    80001be0:	f97d                	bnez	a0,80001bd6 <vprintm+0x1c>
    80001be2:	60b2                	ld	ra,264(sp)
    80001be4:	6412                	ld	s0,256(sp)
    80001be6:	6151                	addi	sp,sp,272
    80001be8:	8082                	ret

0000000080001bea <printm>:
    80001bea:	711d                	addi	sp,sp,-96
    80001bec:	02810313          	addi	t1,sp,40
    80001bf0:	f42e                	sd	a1,40(sp)
    80001bf2:	859a                	mv	a1,t1
    80001bf4:	ec06                	sd	ra,24(sp)
    80001bf6:	f832                	sd	a2,48(sp)
    80001bf8:	fc36                	sd	a3,56(sp)
    80001bfa:	e0ba                	sd	a4,64(sp)
    80001bfc:	e4be                	sd	a5,72(sp)
    80001bfe:	e8c2                	sd	a6,80(sp)
    80001c00:	ecc6                	sd	a7,88(sp)
    80001c02:	e41a                	sd	t1,8(sp)
    80001c04:	fb7ff0ef          	jal	ra,80001bba <vprintm>
    80001c08:	60e2                	ld	ra,24(sp)
    80001c0a:	6125                	addi	sp,sp,96
    80001c0c:	8082                	ret

0000000080001c0e <redirect_trap>:
    80001c0e:	14361073          	csrw	stval,a2
    80001c12:	14151073          	csrw	sepc,a0
    80001c16:	342027f3          	csrr	a5,mcause
    80001c1a:	14279073          	csrw	scause,a5
    80001c1e:	105027f3          	csrr	a5,stvec
    80001c22:	34179073          	csrw	mepc,a5
    80001c26:	00459793          	slli	a5,a1,0x4
    80001c2a:	0035d713          	srli	a4,a1,0x3
    80001c2e:	10077713          	andi	a4,a4,256
    80001c32:	0207f793          	andi	a5,a5,32
    80001c36:	edd5f593          	andi	a1,a1,-291
    80001c3a:	8fd9                	or	a5,a5,a4
    80001c3c:	6705                	lui	a4,0x1
    80001c3e:	8fcd                	or	a5,a5,a1
    80001c40:	80070713          	addi	a4,a4,-2048 # 800 <_ftext-0x7ffff800>
    80001c44:	8fd9                	or	a5,a5,a4
    80001c46:	30079073          	csrw	mstatus,a5
    80001c4a:	d8efe06f          	j	800001d8 <__redirect_trap>

0000000080001c4e <pmp_trap>:
    80001c4e:	8532                	mv	a0,a2
    80001c50:	300025f3          	csrr	a1,mstatus
    80001c54:	34302673          	csrr	a2,mtval
    80001c58:	bf5d                	j	80001c0e <redirect_trap>

0000000080001c5a <poweroff>:
    80001c5a:	1141                	addi	sp,sp,-16
    80001c5c:	e022                	sd	s0,0(sp)
    80001c5e:	842a                	mv	s0,a0
    80001c60:	00005517          	auipc	a0,0x5
    80001c64:	24850513          	addi	a0,a0,584 # 80006ea8 <softfloat_countLeadingZeros8+0x530>
    80001c68:	e406                	sd	ra,8(sp)
    80001c6a:	f81ff0ef          	jal	ra,80001bea <printm>
    80001c6e:	8522                	mv	a0,s0
    80001c70:	36b000ef          	jal	ra,800027da <finisher_exit>
    80001c74:	00011797          	auipc	a5,0x11
    80001c78:	3e47b783          	ld	a5,996(a5) # 80013058 <htif>
    80001c7c:	c399                	beqz	a5,80001c82 <poweroff+0x28>
    80001c7e:	70a000ef          	jal	ra,80002388 <htif_poweroff>
    80001c82:	45a1                	li	a1,8
    80001c84:	4501                	li	a0,0
    80001c86:	dd3ff0ef          	jal	ra,80001a58 <send_ipi_many>
    80001c8a:	10500073          	wfi
    80001c8e:	bff5                	j	80001c8a <poweroff+0x30>

0000000080001c90 <bad_trap>:
    80001c90:	1141                	addi	sp,sp,-16
    80001c92:	e406                	sd	ra,8(sp)
    80001c94:	8732                	mv	a4,a2
    80001c96:	342026f3          	csrr	a3,mcause
    80001c9a:	00005517          	auipc	a0,0x5
    80001c9e:	23650513          	addi	a0,a0,566 # 80006ed0 <softfloat_countLeadingZeros8+0x558>
    80001ca2:	4655                	li	a2,21
    80001ca4:	00005597          	auipc	a1,0x5
    80001ca8:	21458593          	addi	a1,a1,532 # 80006eb8 <softfloat_countLeadingZeros8+0x540>
    80001cac:	f3fff0ef          	jal	ra,80001bea <printm>
    80001cb0:	6541                	lui	a0,0x10
    80001cb2:	157d                	addi	a0,a0,-1
    80001cb4:	fa7ff0ef          	jal	ra,80001c5a <poweroff>

0000000080001cb8 <trap_from_machine_mode>:
    80001cb8:	1141                	addi	sp,sp,-16
    80001cba:	e406                	sd	ra,8(sp)
    80001cbc:	342027f3          	csrr	a5,mcause
    80001cc0:	473d                	li	a4,15
    80001cc2:	06f76463          	bltu	a4,a5,80001d2a <trap_from_machine_mode+0x72>
    80001cc6:	00005817          	auipc	a6,0x5
    80001cca:	aae80813          	addi	a6,a6,-1362 # 80006774 <logo+0x41c>
    80001cce:	00279693          	slli	a3,a5,0x2
    80001cd2:	96c2                	add	a3,a3,a6
    80001cd4:	4298                	lw	a4,0(a3)
    80001cd6:	9742                	add	a4,a4,a6
    80001cd8:	8702                	jr	a4
    80001cda:	30002773          	csrr	a4,mstatus
    80001cde:	02e71693          	slli	a3,a4,0x2e
    80001ce2:	000205b7          	lui	a1,0x20
    80001ce6:	0406d463          	bgez	a3,80001d2e <trap_from_machine_mode+0x76>
    80001cea:	6d38                	ld	a4,88(a0)
    80001cec:	000a06b7          	lui	a3,0xa0
    80001cf0:	00d70b63          	beq	a4,a3,80001d06 <trap_from_machine_mode+0x4e>
    80001cf4:	02b71d63          	bne	a4,a1,80001d2e <trap_from_machine_mode+0x76>
    80001cf8:	34302673          	csrr	a2,mtval
    80001cfc:	752c                	ld	a1,104(a0)
    80001cfe:	60a2                	ld	ra,8(sp)
    80001d00:	7128                	ld	a0,96(a0)
    80001d02:	0141                	addi	sp,sp,16
    80001d04:	b729                	j	80001c0e <redirect_trap>
    80001d06:	4735                	li	a4,13
    80001d08:	00e78e63          	beq	a5,a4,80001d24 <trap_from_machine_mode+0x6c>
    80001d0c:	4715                	li	a4,5
    80001d0e:	02e79063          	bne	a5,a4,80001d2e <trap_from_machine_mode+0x76>
    80001d12:	3420d073          	csrwi	mcause,1
    80001d16:	34302673          	csrr	a2,mtval
    80001d1a:	752c                	ld	a1,104(a0)
    80001d1c:	60a2                	ld	ra,8(sp)
    80001d1e:	7128                	ld	a0,96(a0)
    80001d20:	0141                	addi	sp,sp,16
    80001d22:	b5f5                	j	80001c0e <redirect_trap>
    80001d24:	34265073          	csrwi	mcause,12
    80001d28:	bfc1                	j	80001cf8 <trap_from_machine_mode+0x40>
    80001d2a:	f67ff0ef          	jal	ra,80001c90 <bad_trap>
    80001d2e:	85be                	mv	a1,a5
    80001d30:	f61ff0ef          	jal	ra,80001c90 <bad_trap>

0000000080001d34 <mcall_trap>:
    80001d34:	1141                	addi	sp,sp,-16
    80001d36:	e022                	sd	s0,0(sp)
    80001d38:	e406                	sd	ra,8(sp)
    80001d3a:	842a                	mv	s0,a0
    80001d3c:	0611                	addi	a2,a2,4
    80001d3e:	34161073          	csrw	mepc,a2
    80001d42:	655c                	ld	a5,136(a0)
    80001d44:	4721                	li	a4,8
    80001d46:	6928                	ld	a0,80(a0)
    80001d48:	0af76e63          	bltu	a4,a5,80001e04 <mcall_trap+0xd0>
    80001d4c:	00005617          	auipc	a2,0x5
    80001d50:	a6860613          	addi	a2,a2,-1432 # 800067b4 <logo+0x45c>
    80001d54:	00279693          	slli	a3,a5,0x2
    80001d58:	96b2                	add	a3,a3,a2
    80001d5a:	4298                	lw	a4,0(a3)
    80001d5c:	9732                	add	a4,a4,a2
    80001d5e:	8702                	jr	a4
    80001d60:	4591                	li	a1,4
    80001d62:	cf7ff0ef          	jal	ra,80001a58 <send_ipi_many>
    80001d66:	4781                	li	a5,0
    80001d68:	60a2                	ld	ra,8(sp)
    80001d6a:	e83c                	sd	a5,80(s0)
    80001d6c:	6402                	ld	s0,0(sp)
    80001d6e:	0141                	addi	sp,sp,16
    80001d70:	8082                	ret
    80001d72:	6705                	lui	a4,0x1
    80001d74:	970a                	add	a4,a4,sp
    80001d76:	76fd                	lui	a3,0xfffff
    80001d78:	8f75                	and	a4,a4,a3
    80001d7a:	fd073703          	ld	a4,-48(a4) # fd0 <_ftext-0x7ffff030>
    80001d7e:	e308                	sd	a0,0(a4)
    80001d80:	02000713          	li	a4,32
    80001d84:	34473773          	csrrc	a4,mip,a4
    80001d88:	08000713          	li	a4,128
    80001d8c:	30472773          	csrrs	a4,mie,a4
    80001d90:	60a2                	ld	ra,8(sp)
    80001d92:	e83c                	sd	a5,80(s0)
    80001d94:	6402                	ld	s0,0(sp)
    80001d96:	0141                	addi	sp,sp,16
    80001d98:	8082                	ret
    80001d9a:	0ff57513          	andi	a0,a0,255
    80001d9e:	dbbff0ef          	jal	ra,80001b58 <mcall_console_putchar>
    80001da2:	87aa                	mv	a5,a0
    80001da4:	60a2                	ld	ra,8(sp)
    80001da6:	e83c                	sd	a5,80(s0)
    80001da8:	6402                	ld	s0,0(sp)
    80001daa:	0141                	addi	sp,sp,16
    80001dac:	8082                	ret
    80001dae:	00011797          	auipc	a5,0x11
    80001db2:	2ba7b783          	ld	a5,698(a5) # 80013068 <uart>
    80001db6:	e3b9                	bnez	a5,80001dfc <mcall_trap+0xc8>
    80001db8:	00011797          	auipc	a5,0x11
    80001dbc:	2b87b783          	ld	a5,696(a5) # 80013070 <uart16550>
    80001dc0:	eb95                	bnez	a5,80001df4 <mcall_trap+0xc0>
    80001dc2:	00011797          	auipc	a5,0x11
    80001dc6:	2967b783          	ld	a5,662(a5) # 80013058 <htif>
    80001dca:	dfd9                	beqz	a5,80001d68 <mcall_trap+0x34>
    80001dcc:	47c000ef          	jal	ra,80002248 <htif_console_getchar>
    80001dd0:	87aa                	mv	a5,a0
    80001dd2:	bf59                	j	80001d68 <mcall_trap+0x34>
    80001dd4:	34417573          	csrrci	a0,mip,2
    80001dd8:	00257793          	andi	a5,a0,2
    80001ddc:	60a2                	ld	ra,8(sp)
    80001dde:	e83c                	sd	a5,80(s0)
    80001de0:	6402                	ld	s0,0(sp)
    80001de2:	0141                	addi	sp,sp,16
    80001de4:	8082                	ret
    80001de6:	4585                	li	a1,1
    80001de8:	bfad                	j	80001d62 <mcall_trap+0x2e>
    80001dea:	4589                	li	a1,2
    80001dec:	bf9d                	j	80001d62 <mcall_trap+0x2e>
    80001dee:	4501                	li	a0,0
    80001df0:	e6bff0ef          	jal	ra,80001c5a <poweroff>
    80001df4:	0eb000ef          	jal	ra,800026de <uart16550_getchar>
    80001df8:	87aa                	mv	a5,a0
    80001dfa:	b7bd                	j	80001d68 <mcall_trap+0x34>
    80001dfc:	68c000ef          	jal	ra,80002488 <uart_getchar>
    80001e00:	87aa                	mv	a5,a0
    80001e02:	b79d                	j	80001d68 <mcall_trap+0x34>
    80001e04:	fa800793          	li	a5,-88
    80001e08:	b785                	j	80001d68 <mcall_trap+0x34>
	...

0000000080001e0c <hart_init>:
    80001e0c:	1141                	addi	sp,sp,-16
    80001e0e:	301027f3          	csrr	a5,misa
    80001e12:	e406                	sd	ra,8(sp)
    80001e14:	0207f793          	andi	a5,a5,32
    80001e18:	6719                	lui	a4,0x6
    80001e1a:	e391                	bnez	a5,80001e1e <hart_init+0x12>
    80001e1c:	4701                	li	a4,0
    80001e1e:	301027f3          	csrr	a5,misa
    80001e22:	02a79693          	slli	a3,a5,0x2a
    80001e26:	0006d563          	bgez	a3,80001e30 <hart_init+0x24>
    80001e2a:	018007b7          	lui	a5,0x1800
    80001e2e:	8f5d                	or	a4,a4,a5
    80001e30:	30071073          	csrw	mstatus,a4
    80001e34:	301027f3          	csrr	a5,misa
    80001e38:	02d79713          	slli	a4,a5,0x2d
    80001e3c:	00075563          	bgez	a4,80001e46 <hart_init+0x3a>
    80001e40:	57fd                	li	a5,-1
    80001e42:	10679073          	csrw	scounteren,a5
    80001e46:	301027f3          	csrr	a5,misa
    80001e4a:	02b79713          	slli	a4,a5,0x2b
    80001e4e:	00075563          	bgez	a4,80001e58 <hart_init+0x4c>
    80001e52:	57fd                	li	a5,-1
    80001e54:	30679073          	csrw	mcounteren,a5
    80001e58:	30445073          	csrwi	mie,8
    80001e5c:	301027f3          	csrr	a5,misa
    80001e60:	02d79713          	slli	a4,a5,0x2d
    80001e64:	00075463          	bgez	a4,80001e6c <hart_init+0x60>
    80001e68:	18005073          	csrwi	satp,0
    80001e6c:	301027f3          	csrr	a5,misa
    80001e70:	0207f793          	andi	a5,a5,32
    80001e74:	c785                	beqz	a5,80001e9c <hart_init+0x90>
    80001e76:	30002773          	csrr	a4,mstatus
    80001e7a:	6799                	lui	a5,0x6
    80001e7c:	8f7d                	and	a4,a4,a5
    80001e7e:	10000693          	li	a3,256
    80001e82:	4781                	li	a5,0
    80001e84:	c72d                	beqz	a4,80001eee <hart_init+0xe2>
    80001e86:	4501                	li	a0,0
    80001e88:	00001717          	auipc	a4,0x1
    80001e8c:	973e                	add	a4,a4,a5
    80001e8e:	aae702e7          	jalr	t0,-1362(a4) # 80002936 <put_f32_reg>
    80001e92:	07a1                	addi	a5,a5,8
    80001e94:	fed799e3          	bne	a5,a3,80001e86 <hart_init+0x7a>
    80001e98:	00305073          	csrwi	fcsr,0
    80001e9c:	301027f3          	csrr	a5,misa
    80001ea0:	02d79713          	slli	a4,a5,0x2d
    80001ea4:	02075363          	bgez	a4,80001eca <hart_init+0xbe>
    80001ea8:	22200713          	li	a4,546
    80001eac:	30371073          	csrw	mideleg,a4
    80001eb0:	67ad                	lui	a5,0xb
    80001eb2:	10978793          	addi	a5,a5,265 # b109 <_ftext-0x7fff4ef7>
    80001eb6:	30279073          	csrw	medeleg,a5
    80001eba:	303026f3          	csrr	a3,mideleg
    80001ebe:	06e69763          	bne	a3,a4,80001f2c <hart_init+0x120>
    80001ec2:	30202773          	csrr	a4,medeleg
    80001ec6:	04f71863          	bne	a4,a5,80001f16 <hart_init+0x10a>
    80001eca:	47fd                	li	a5,31
    80001ecc:	577d                	li	a4,-1
    80001ece:	00000297          	auipc	t0,0x0
    80001ed2:	01628293          	addi	t0,t0,22 # 80001ee4 <hart_init+0xd8>
    80001ed6:	305292f3          	csrrw	t0,mtvec,t0
    80001eda:	3b071073          	csrw	pmpaddr0,a4
    80001ede:	3a079073          	csrw	pmpcfg0,a5
    80001ee2:	0001                	nop
    80001ee4:	30529073          	csrw	mtvec,t0
    80001ee8:	60a2                	ld	ra,8(sp)
    80001eea:	0141                	addi	sp,sp,16
    80001eec:	8082                	ret
    80001eee:	00005517          	auipc	a0,0x5
    80001ef2:	c2a50513          	addi	a0,a0,-982 # 80006b18 <softfloat_countLeadingZeros8+0x1a0>
    80001ef6:	00005697          	auipc	a3,0x5
    80001efa:	00a68693          	addi	a3,a3,10 # 80006f00 <softfloat_countLeadingZeros8+0x588>
    80001efe:	04e00613          	li	a2,78
    80001f02:	00005597          	auipc	a1,0x5
    80001f06:	01e58593          	addi	a1,a1,30 # 80006f20 <softfloat_countLeadingZeros8+0x5a8>
    80001f0a:	ce1ff0ef          	jal	ra,80001bea <printm>
    80001f0e:	6541                	lui	a0,0x10
    80001f10:	157d                	addi	a0,a0,-1
    80001f12:	d49ff0ef          	jal	ra,80001c5a <poweroff>
    80001f16:	00005517          	auipc	a0,0x5
    80001f1a:	c0250513          	addi	a0,a0,-1022 # 80006b18 <softfloat_countLeadingZeros8+0x1a0>
    80001f1e:	00005697          	auipc	a3,0x5
    80001f22:	03a68693          	addi	a3,a3,58 # 80006f58 <softfloat_countLeadingZeros8+0x5e0>
    80001f26:	04600613          	li	a2,70
    80001f2a:	bfe1                	j	80001f02 <hart_init+0xf6>
    80001f2c:	00005517          	auipc	a0,0x5
    80001f30:	bec50513          	addi	a0,a0,-1044 # 80006b18 <softfloat_countLeadingZeros8+0x1a0>
    80001f34:	00005697          	auipc	a3,0x5
    80001f38:	00468693          	addi	a3,a3,4 # 80006f38 <softfloat_countLeadingZeros8+0x5c0>
    80001f3c:	04500613          	li	a2,69
    80001f40:	b7c9                	j	80001f02 <hart_init+0xf6>

0000000080001f42 <hart_plic_init>:
    80001f42:	6605                	lui	a2,0x1
    80001f44:	960a                	add	a2,a2,sp
    80001f46:	77fd                	lui	a5,0xfffff
    80001f48:	8e7d                	and	a2,a2,a5
    80001f4a:	fc063703          	ld	a4,-64(a2) # fc0 <_ftext-0x7ffff040>
    80001f4e:	fd063783          	ld	a5,-48(a2)
    80001f52:	00072023          	sw	zero,0(a4)
    80001f56:	577d                	li	a4,-1
    80001f58:	e398                	sd	a4,0(a5)
    80001f5a:	34405073          	csrwi	mip,0
    80001f5e:	00011697          	auipc	a3,0x11
    80001f62:	0c26b683          	ld	a3,194(a3) # 80013020 <plic_ndevs>
    80001f66:	ce9d                	beqz	a3,80001fa4 <hart_plic_init+0x62>
    80001f68:	03f68693          	addi	a3,a3,63
    80001f6c:	8299                	srli	a3,a3,0x6
    80001f6e:	ce91                	beqz	a3,80001f8a <hart_plic_init+0x48>
    80001f70:	ff063583          	ld	a1,-16(a2)
    80001f74:	068e                	slli	a3,a3,0x3
    80001f76:	4781                	li	a5,0
    80001f78:	557d                	li	a0,-1
    80001f7a:	c589                	beqz	a1,80001f84 <hart_plic_init+0x42>
    80001f7c:	ff063703          	ld	a4,-16(a2)
    80001f80:	973e                	add	a4,a4,a5
    80001f82:	e308                	sd	a0,0(a4)
    80001f84:	07a1                	addi	a5,a5,8
    80001f86:	fef69ae3          	bne	a3,a5,80001f7a <hart_plic_init+0x38>
    80001f8a:	6785                	lui	a5,0x1
    80001f8c:	777d                	lui	a4,0xfffff
    80001f8e:	978a                	add	a5,a5,sp
    80001f90:	8ff9                	and	a5,a5,a4
    80001f92:	fd87b703          	ld	a4,-40(a5) # fd8 <_ftext-0x7ffff028>
    80001f96:	fe87b783          	ld	a5,-24(a5)
    80001f9a:	4685                	li	a3,1
    80001f9c:	c314                	sw	a3,0(a4)
    80001f9e:	c399                	beqz	a5,80001fa4 <hart_plic_init+0x62>
    80001fa0:	0007a023          	sw	zero,0(a5)
    80001fa4:	8082                	ret

0000000080001fa6 <hls_init>:
    80001fa6:	f14027f3          	csrr	a5,mhartid
    80001faa:	40f507b3          	sub	a5,a0,a5
    80001fae:	6505                	lui	a0,0x1
    80001fb0:	950a                	add	a0,a0,sp
    80001fb2:	777d                	lui	a4,0xfffff
    80001fb4:	07b2                	slli	a5,a5,0xc
    80001fb6:	8d79                	and	a0,a0,a4
    80001fb8:	fc078793          	addi	a5,a5,-64
    80001fbc:	953e                	add	a0,a0,a5
    80001fbe:	00053023          	sd	zero,0(a0) # 1000 <_ftext-0x7ffff000>
    80001fc2:	00053423          	sd	zero,8(a0)
    80001fc6:	00053823          	sd	zero,16(a0)
    80001fca:	00053c23          	sd	zero,24(a0)
    80001fce:	02053023          	sd	zero,32(a0)
    80001fd2:	02053423          	sd	zero,40(a0)
    80001fd6:	02053823          	sd	zero,48(a0)
    80001fda:	8082                	ret

0000000080001fdc <init_first_hart>:
    80001fdc:	1141                	addi	sp,sp,-16
    80001fde:	852e                	mv	a0,a1
    80001fe0:	e406                	sd	ra,8(sp)
    80001fe2:	e022                	sd	s0,0(sp)
    80001fe4:	842e                	mv	s0,a1
    80001fe6:	4bc000ef          	jal	ra,800024a2 <query_uart>
    80001fea:	8522                	mv	a0,s0
    80001fec:	720000ef          	jal	ra,8000270c <query_uart16550>
    80001ff0:	8522                	mv	a0,s0
    80001ff2:	3ac000ef          	jal	ra,8000239e <query_htif>
    80001ff6:	00005517          	auipc	a0,0x5
    80001ffa:	f8250513          	addi	a0,a0,-126 # 80006f78 <softfloat_countLeadingZeros8+0x600>
    80001ffe:	bedff0ef          	jal	ra,80001bea <printm>
    80002002:	e0bff0ef          	jal	ra,80001e0c <hart_init>
    80002006:	4501                	li	a0,0
    80002008:	f9fff0ef          	jal	ra,80001fa6 <hls_init>
    8000200c:	8522                	mv	a0,s0
    8000200e:	7f4000ef          	jal	ra,80002802 <query_finisher>
    80002012:	8522                	mv	a0,s0
    80002014:	fc4ff0ef          	jal	ra,800017d8 <query_mem>
    80002018:	8522                	mv	a0,s0
    8000201a:	82bff0ef          	jal	ra,80001844 <query_harts>
    8000201e:	8522                	mv	a0,s0
    80002020:	8a3ff0ef          	jal	ra,800018c2 <query_clint>
    80002024:	8522                	mv	a0,s0
    80002026:	8ffff0ef          	jal	ra,80001924 <query_plic>
    8000202a:	8522                	mv	a0,s0
    8000202c:	9a5ff0ef          	jal	ra,800019d0 <query_chosen>
    80002030:	00011597          	auipc	a1,0x11
    80002034:	fe05b583          	ld	a1,-32(a1) # 80013010 <disabled_hart_mask>
    80002038:	00011797          	auipc	a5,0x11
    8000203c:	fe07b783          	ld	a5,-32(a5) # 80013018 <hart_mask>
    80002040:	fff5c593          	not	a1,a1
    80002044:	6605                	lui	a2,0x1
    80002046:	960a                	add	a2,a2,sp
    80002048:	8dfd                	and	a1,a1,a5
    8000204a:	77fd                	lui	a5,0xfffff
    8000204c:	8e7d                	and	a2,a2,a5
    8000204e:	4701                	li	a4,0
    80002050:	4885                	li	a7,1
    80002052:	4821                	li	a6,8
    80002054:	f1402573          	csrr	a0,mhartid
    80002058:	40a707b3          	sub	a5,a4,a0
    8000205c:	00e5d6b3          	srl	a3,a1,a4
    80002060:	07b2                	slli	a5,a5,0xc
    80002062:	8a85                	andi	a3,a3,1
    80002064:	97b2                	add	a5,a5,a2
    80002066:	0705                	addi	a4,a4,1
    80002068:	c689                	beqz	a3,80002072 <init_first_hart+0x96>
    8000206a:	fc07b783          	ld	a5,-64(a5) # ffffffffffffefc0 <_payload_end+0xffffffff7f8d8c90>
    8000206e:	0117a023          	sw	a7,0(a5)
    80002072:	ff0713e3          	bne	a4,a6,80002058 <init_first_hart+0x7c>
    80002076:	00011797          	auipc	a5,0x11
    8000207a:	faa7b783          	ld	a5,-86(a5) # 80013020 <plic_ndevs>
    8000207e:	c385                	beqz	a5,8000209e <init_first_hart+0xc2>
    80002080:	00011697          	auipc	a3,0x11
    80002084:	fa86b683          	ld	a3,-88(a3) # 80013028 <plic_priorities>
    80002088:	00279713          	slli	a4,a5,0x2
    8000208c:	4605                	li	a2,1
    8000208e:	00468793          	addi	a5,a3,4
    80002092:	96ba                	add	a3,a3,a4
    80002094:	873e                	mv	a4,a5
    80002096:	c390                	sw	a2,0(a5)
    80002098:	0791                	addi	a5,a5,4
    8000209a:	fed71de3          	bne	a4,a3,80002094 <init_first_hart+0xb8>
    8000209e:	ea5ff0ef          	jal	ra,80001f42 <hart_plic_init>
    800020a2:	00011717          	auipc	a4,0x11
    800020a6:	f8e70713          	addi	a4,a4,-114 # 80013030 <mem_size>
    800020aa:	631c                	ld	a5,0(a4)
    800020ac:	8522                	mv	a0,s0
    800020ae:	ffe006b7          	lui	a3,0xffe00
    800020b2:	6402                	ld	s0,0(sp)
    800020b4:	60a2                	ld	ra,8(sp)
    800020b6:	8ff5                	and	a5,a5,a3
    800020b8:	e31c                	sd	a5,0(a4)
    800020ba:	0141                	addi	sp,sp,16
    800020bc:	b0cfe06f          	j	800003c8 <boot_loader>

00000000800020c0 <init_other_hart>:
    800020c0:	1141                	addi	sp,sp,-16
    800020c2:	e406                	sd	ra,8(sp)
    800020c4:	e022                	sd	s0,0(sp)
    800020c6:	842e                	mv	s0,a1
    800020c8:	d45ff0ef          	jal	ra,80001e0c <hart_init>
    800020cc:	e77ff0ef          	jal	ra,80001f42 <hart_plic_init>
    800020d0:	8522                	mv	a0,s0
    800020d2:	6402                	ld	s0,0(sp)
    800020d4:	60a2                	ld	ra,8(sp)
    800020d6:	0141                	addi	sp,sp,16
    800020d8:	a10fe06f          	j	800002e8 <boot_other_hart>

00000000800020dc <setup_pmp>:
    800020dc:	47fd                	li	a5,31
    800020de:	577d                	li	a4,-1
    800020e0:	00000297          	auipc	t0,0x0
    800020e4:	01428293          	addi	t0,t0,20 # 800020f4 <setup_pmp+0x18>
    800020e8:	305292f3          	csrrw	t0,mtvec,t0
    800020ec:	3b071073          	csrw	pmpaddr0,a4
    800020f0:	3a079073          	csrw	pmpcfg0,a5
    800020f4:	30529073          	csrw	mtvec,t0
    800020f8:	8082                	ret

00000000800020fa <enter_supervisor_mode>:
    800020fa:	86aa                	mv	a3,a0
    800020fc:	852e                	mv	a0,a1
    800020fe:	85b2                	mv	a1,a2
    80002100:	30002773          	csrr	a4,mstatus
    80002104:	7679                	lui	a2,0xffffe
    80002106:	6785                	lui	a5,0x1
    80002108:	77f60613          	addi	a2,a2,1919 # ffffffffffffe77f <_payload_end+0xffffffff7f8d844f>
    8000210c:	8f71                	and	a4,a4,a2
    8000210e:	80078613          	addi	a2,a5,-2048 # 800 <_ftext-0x7ffff800>
    80002112:	8f51                	or	a4,a4,a2
    80002114:	30071073          	csrw	mstatus,a4
    80002118:	777d                	lui	a4,0xfffff
    8000211a:	978a                	add	a5,a5,sp
    8000211c:	8ff9                	and	a5,a5,a4
    8000211e:	ec078793          	addi	a5,a5,-320
    80002122:	34079073          	csrw	mscratch,a5
    80002126:	34169073          	csrw	mepc,a3
    8000212a:	30200073          	mret

000000008000212e <enter_machine_mode>:
    8000212e:	1141                	addi	sp,sp,-16
    80002130:	872a                	mv	a4,a0
    80002132:	e406                	sd	ra,8(sp)
    80002134:	852e                	mv	a0,a1
    80002136:	85b2                	mv	a1,a2
    80002138:	300027f3          	csrr	a5,mstatus
    8000213c:	f7f7f793          	andi	a5,a5,-129
    80002140:	30079073          	csrw	mstatus,a5
    80002144:	6785                	lui	a5,0x1
    80002146:	978a                	add	a5,a5,sp
    80002148:	76fd                	lui	a3,0xfffff
    8000214a:	8ff5                	and	a5,a5,a3
    8000214c:	ec078793          	addi	a5,a5,-320 # ec0 <_ftext-0x7ffff140>
    80002150:	34079073          	csrw	mscratch,a5
    80002154:	9702                	jalr	a4

0000000080002156 <htif_done>:
    80002156:	419c                	lw	a5,0(a1)
    80002158:	c791                	beqz	a5,80002164 <htif_done+0xe>
    8000215a:	4785                	li	a5,1
    8000215c:	00011717          	auipc	a4,0x11
    80002160:	eef73e23          	sd	a5,-260(a4) # 80013058 <htif>
    80002164:	8082                	ret

0000000080002166 <htif_open>:
    80002166:	00058023          	sb	zero,0(a1)
    8000216a:	000580a3          	sb	zero,1(a1)
    8000216e:	00058123          	sb	zero,2(a1)
    80002172:	000581a3          	sb	zero,3(a1)
    80002176:	8082                	ret

0000000080002178 <__check_fromhost>:
    80002178:	00006797          	auipc	a5,0x6
    8000217c:	e887b783          	ld	a5,-376(a5) # 80008000 <fromhost>
    80002180:	cf9d                	beqz	a5,800021be <__check_fromhost+0x46>
    80002182:	1141                	addi	sp,sp,-16
    80002184:	00006717          	auipc	a4,0x6
    80002188:	e6073e23          	sd	zero,-388(a4) # 80008000 <fromhost>
    8000218c:	e406                	sd	ra,8(sp)
    8000218e:	0387d693          	srli	a3,a5,0x38
    80002192:	4705                	li	a4,1
    80002194:	02e69663          	bne	a3,a4,800021c0 <__check_fromhost+0x48>
    80002198:	00879713          	slli	a4,a5,0x8
    8000219c:	9361                	srli	a4,a4,0x38
    8000219e:	c711                	beqz	a4,800021aa <__check_fromhost+0x32>
    800021a0:	04d71363          	bne	a4,a3,800021e6 <__check_fromhost+0x6e>
    800021a4:	60a2                	ld	ra,8(sp)
    800021a6:	0141                	addi	sp,sp,16
    800021a8:	8082                	ret
    800021aa:	60a2                	ld	ra,8(sp)
    800021ac:	0ff7f793          	andi	a5,a5,255
    800021b0:	2785                	addiw	a5,a5,1
    800021b2:	00011717          	auipc	a4,0x11
    800021b6:	eaf72723          	sw	a5,-338(a4) # 80013060 <htif_console_buf>
    800021ba:	0141                	addi	sp,sp,16
    800021bc:	8082                	ret
    800021be:	8082                	ret
    800021c0:	00005517          	auipc	a0,0x5
    800021c4:	95850513          	addi	a0,a0,-1704 # 80006b18 <softfloat_countLeadingZeros8+0x1a0>
    800021c8:	00005697          	auipc	a3,0x5
    800021cc:	dc068693          	addi	a3,a3,-576 # 80006f88 <softfloat_countLeadingZeros8+0x610>
    800021d0:	467d                	li	a2,31
    800021d2:	00005597          	auipc	a1,0x5
    800021d6:	dce58593          	addi	a1,a1,-562 # 80006fa0 <softfloat_countLeadingZeros8+0x628>
    800021da:	a11ff0ef          	jal	ra,80001bea <printm>
    800021de:	6541                	lui	a0,0x10
    800021e0:	157d                	addi	a0,a0,-1
    800021e2:	a79ff0ef          	jal	ra,80001c5a <poweroff>
    800021e6:	00005517          	auipc	a0,0x5
    800021ea:	93250513          	addi	a0,a0,-1742 # 80006b18 <softfloat_countLeadingZeros8+0x1a0>
    800021ee:	00005697          	auipc	a3,0x5
    800021f2:	a3a68693          	addi	a3,a3,-1478 # 80006c28 <softfloat_countLeadingZeros8+0x2b0>
    800021f6:	02700613          	li	a2,39
    800021fa:	00005597          	auipc	a1,0x5
    800021fe:	da658593          	addi	a1,a1,-602 # 80006fa0 <softfloat_countLeadingZeros8+0x628>
    80002202:	9e9ff0ef          	jal	ra,80001bea <printm>
    80002206:	6541                	lui	a0,0x10
    80002208:	157d                	addi	a0,a0,-1
    8000220a:	a51ff0ef          	jal	ra,80001c5a <poweroff>

000000008000220e <htif_prop>:
    8000220e:	1101                	addi	sp,sp,-32
    80002210:	e822                	sd	s0,16(sp)
    80002212:	842a                	mv	s0,a0
    80002214:	6508                	ld	a0,8(a0)
    80002216:	e426                	sd	s1,8(sp)
    80002218:	84ae                	mv	s1,a1
    8000221a:	00005597          	auipc	a1,0x5
    8000221e:	bfe58593          	addi	a1,a1,-1026 # 80006e18 <softfloat_countLeadingZeros8+0x4a0>
    80002222:	ec06                	sd	ra,24(sp)
    80002224:	098040ef          	jal	ra,800062bc <strcmp>
    80002228:	e919                	bnez	a0,8000223e <htif_prop+0x30>
    8000222a:	6808                	ld	a0,16(s0)
    8000222c:	00005597          	auipc	a1,0x5
    80002230:	d8c58593          	addi	a1,a1,-628 # 80006fb8 <softfloat_countLeadingZeros8+0x640>
    80002234:	088040ef          	jal	ra,800062bc <strcmp>
    80002238:	e119                	bnez	a0,8000223e <htif_prop+0x30>
    8000223a:	4785                	li	a5,1
    8000223c:	c09c                	sw	a5,0(s1)
    8000223e:	60e2                	ld	ra,24(sp)
    80002240:	6442                	ld	s0,16(sp)
    80002242:	64a2                	ld	s1,8(sp)
    80002244:	6105                	addi	sp,sp,32
    80002246:	8082                	ret

0000000080002248 <htif_console_getchar>:
    80002248:	1101                	addi	sp,sp,-32
    8000224a:	ec06                	sd	ra,24(sp)
    8000224c:	e822                	sd	s0,16(sp)
    8000224e:	e426                	sd	s1,8(sp)
    80002250:	00011717          	auipc	a4,0x11
    80002254:	db870713          	addi	a4,a4,-584 # 80013008 <htif_lock>
    80002258:	56fd                	li	a3,-1
    8000225a:	431c                	lw	a5,0(a4)
    8000225c:	2781                	sext.w	a5,a5
    8000225e:	fff5                	bnez	a5,8000225a <htif_console_getchar+0x12>
    80002260:	87b6                	mv	a5,a3
    80002262:	0cf727af          	amoswap.w.aq	a5,a5,(a4)
    80002266:	2781                	sext.w	a5,a5
    80002268:	0ff0000f          	fence
    8000226c:	f7fd                	bnez	a5,8000225a <htif_console_getchar+0x12>
    8000226e:	f0bff0ef          	jal	ra,80002178 <__check_fromhost>
    80002272:	00011497          	auipc	s1,0x11
    80002276:	dee4a483          	lw	s1,-530(s1) # 80013060 <htif_console_buf>
    8000227a:	0204c463          	bltz	s1,800022a2 <htif_console_getchar+0x5a>
    8000227e:	57fd                	li	a5,-1
    80002280:	00011717          	auipc	a4,0x11
    80002284:	def72023          	sw	a5,-544(a4) # 80013060 <htif_console_buf>
    80002288:	00006417          	auipc	s0,0x6
    8000228c:	d7840413          	addi	s0,s0,-648 # 80008000 <fromhost>
    80002290:	641c                	ld	a5,8(s0)
    80002292:	c789                	beqz	a5,8000229c <htif_console_getchar+0x54>
    80002294:	ee5ff0ef          	jal	ra,80002178 <__check_fromhost>
    80002298:	641c                	ld	a5,8(s0)
    8000229a:	ffed                	bnez	a5,80002294 <htif_console_getchar+0x4c>
    8000229c:	4785                	li	a5,1
    8000229e:	17e2                	slli	a5,a5,0x38
    800022a0:	e41c                	sd	a5,8(s0)
    800022a2:	0ff0000f          	fence
    800022a6:	60e2                	ld	ra,24(sp)
    800022a8:	6442                	ld	s0,16(sp)
    800022aa:	00011797          	auipc	a5,0x11
    800022ae:	d407af23          	sw	zero,-674(a5) # 80013008 <htif_lock>
    800022b2:	fff4851b          	addiw	a0,s1,-1
    800022b6:	64a2                	ld	s1,8(sp)
    800022b8:	6105                	addi	sp,sp,32
    800022ba:	8082                	ret

00000000800022bc <htif_syscall>:
    800022bc:	1101                	addi	sp,sp,-32
    800022be:	e426                	sd	s1,8(sp)
    800022c0:	ec06                	sd	ra,24(sp)
    800022c2:	e822                	sd	s0,16(sp)
    800022c4:	84aa                	mv	s1,a0
    800022c6:	00011797          	auipc	a5,0x11
    800022ca:	d4278793          	addi	a5,a5,-702 # 80013008 <htif_lock>
    800022ce:	56fd                	li	a3,-1
    800022d0:	4398                	lw	a4,0(a5)
    800022d2:	2701                	sext.w	a4,a4
    800022d4:	ff75                	bnez	a4,800022d0 <htif_syscall+0x14>
    800022d6:	8736                	mv	a4,a3
    800022d8:	0ce7a72f          	amoswap.w.aq	a4,a4,(a5)
    800022dc:	2701                	sext.w	a4,a4
    800022de:	0ff0000f          	fence
    800022e2:	f77d                	bnez	a4,800022d0 <htif_syscall+0x14>
    800022e4:	00006417          	auipc	s0,0x6
    800022e8:	d1c40413          	addi	s0,s0,-740 # 80008000 <fromhost>
    800022ec:	641c                	ld	a5,8(s0)
    800022ee:	c789                	beqz	a5,800022f8 <htif_syscall+0x3c>
    800022f0:	e89ff0ef          	jal	ra,80002178 <__check_fromhost>
    800022f4:	641c                	ld	a5,8(s0)
    800022f6:	ffed                	bnez	a5,800022f0 <htif_syscall+0x34>
    800022f8:	e404                	sd	s1,8(s0)
    800022fa:	601c                	ld	a5,0(s0)
    800022fc:	dffd                	beqz	a5,800022fa <htif_syscall+0x3e>
    800022fe:	00879713          	slli	a4,a5,0x8
    80002302:	8fd9                	or	a5,a5,a4
    80002304:	93e1                	srli	a5,a5,0x38
    80002306:	c781                	beqz	a5,8000230e <htif_syscall+0x52>
    80002308:	e71ff0ef          	jal	ra,80002178 <__check_fromhost>
    8000230c:	b7fd                	j	800022fa <htif_syscall+0x3e>
    8000230e:	00006797          	auipc	a5,0x6
    80002312:	ce07b923          	sd	zero,-782(a5) # 80008000 <fromhost>
    80002316:	0ff0000f          	fence
    8000231a:	60e2                	ld	ra,24(sp)
    8000231c:	6442                	ld	s0,16(sp)
    8000231e:	00011797          	auipc	a5,0x11
    80002322:	ce07a523          	sw	zero,-790(a5) # 80013008 <htif_lock>
    80002326:	64a2                	ld	s1,8(sp)
    80002328:	6105                	addi	sp,sp,32
    8000232a:	8082                	ret

000000008000232c <htif_console_putchar>:
    8000232c:	1101                	addi	sp,sp,-32
    8000232e:	e426                	sd	s1,8(sp)
    80002330:	ec06                	sd	ra,24(sp)
    80002332:	e822                	sd	s0,16(sp)
    80002334:	84aa                	mv	s1,a0
    80002336:	00011717          	auipc	a4,0x11
    8000233a:	cd270713          	addi	a4,a4,-814 # 80013008 <htif_lock>
    8000233e:	56fd                	li	a3,-1
    80002340:	431c                	lw	a5,0(a4)
    80002342:	2781                	sext.w	a5,a5
    80002344:	fff5                	bnez	a5,80002340 <htif_console_putchar+0x14>
    80002346:	87b6                	mv	a5,a3
    80002348:	0cf727af          	amoswap.w.aq	a5,a5,(a4)
    8000234c:	2781                	sext.w	a5,a5
    8000234e:	0ff0000f          	fence
    80002352:	f7fd                	bnez	a5,80002340 <htif_console_putchar+0x14>
    80002354:	00006417          	auipc	s0,0x6
    80002358:	cac40413          	addi	s0,s0,-852 # 80008000 <fromhost>
    8000235c:	641c                	ld	a5,8(s0)
    8000235e:	c789                	beqz	a5,80002368 <htif_console_putchar+0x3c>
    80002360:	e19ff0ef          	jal	ra,80002178 <__check_fromhost>
    80002364:	641c                	ld	a5,8(s0)
    80002366:	ffed                	bnez	a5,80002360 <htif_console_putchar+0x34>
    80002368:	10100513          	li	a0,257
    8000236c:	1542                	slli	a0,a0,0x30
    8000236e:	8cc9                	or	s1,s1,a0
    80002370:	e404                	sd	s1,8(s0)
    80002372:	0ff0000f          	fence
    80002376:	60e2                	ld	ra,24(sp)
    80002378:	6442                	ld	s0,16(sp)
    8000237a:	00011797          	auipc	a5,0x11
    8000237e:	c807a723          	sw	zero,-882(a5) # 80013008 <htif_lock>
    80002382:	64a2                	ld	s1,8(sp)
    80002384:	6105                	addi	sp,sp,32
    80002386:	8082                	ret

0000000080002388 <htif_poweroff>:
    80002388:	00006717          	auipc	a4,0x6
    8000238c:	c7870713          	addi	a4,a4,-904 # 80008000 <fromhost>
    80002390:	4785                	li	a5,1
    80002392:	00006697          	auipc	a3,0x6
    80002396:	c606b723          	sd	zero,-914(a3) # 80008000 <fromhost>
    8000239a:	e71c                	sd	a5,8(a4)
    8000239c:	bfdd                	j	80002392 <htif_poweroff+0xa>

000000008000239e <query_htif>:
    8000239e:	7139                	addi	sp,sp,-64
    800023a0:	00000797          	auipc	a5,0x0
    800023a4:	dc678793          	addi	a5,a5,-570 # 80002166 <htif_open>
    800023a8:	e43e                	sd	a5,8(sp)
    800023aa:	00000797          	auipc	a5,0x0
    800023ae:	e6478793          	addi	a5,a5,-412 # 8000220e <htif_prop>
    800023b2:	e83e                	sd	a5,16(sp)
    800023b4:	002c                	addi	a1,sp,8
    800023b6:	00000797          	auipc	a5,0x0
    800023ba:	da078793          	addi	a5,a5,-608 # 80002156 <htif_done>
    800023be:	fc06                	sd	ra,56(sp)
    800023c0:	f002                	sd	zero,32(sp)
    800023c2:	ec3e                	sd	a5,24(sp)
    800023c4:	f40a                	sd	sp,40(sp)
    800023c6:	f27fe0ef          	jal	ra,800012ec <fdt_scan>
    800023ca:	70e2                	ld	ra,56(sp)
    800023cc:	6121                	addi	sp,sp,64
    800023ce:	8082                	ret

00000000800023d0 <uart_done>:
    800023d0:	419c                	lw	a5,0(a1)
    800023d2:	cb89                	beqz	a5,800023e4 <uart_done+0x14>
    800023d4:	659c                	ld	a5,8(a1)
    800023d6:	c799                	beqz	a5,800023e4 <uart_done+0x14>
    800023d8:	00011717          	auipc	a4,0x11
    800023dc:	c9070713          	addi	a4,a4,-880 # 80013068 <uart>
    800023e0:	6314                	ld	a3,0(a4)
    800023e2:	c291                	beqz	a3,800023e6 <uart_done+0x16>
    800023e4:	8082                	ret
    800023e6:	4685                	li	a3,1
    800023e8:	c794                	sw	a3,8(a5)
    800023ea:	e31c                	sd	a5,0(a4)
    800023ec:	c7d4                	sw	a3,12(a5)
    800023ee:	8082                	ret

00000000800023f0 <uart_open>:
    800023f0:	852e                	mv	a0,a1
    800023f2:	4641                	li	a2,16
    800023f4:	4581                	li	a1,0
    800023f6:	6670306f          	j	8000625c <memset>

00000000800023fa <uart_prop>:
    800023fa:	1101                	addi	sp,sp,-32
    800023fc:	e04a                	sd	s2,0(sp)
    800023fe:	00853903          	ld	s2,8(a0) # 10008 <_ftext-0x7ffefff8>
    80002402:	e822                	sd	s0,16(sp)
    80002404:	e426                	sd	s1,8(sp)
    80002406:	842a                	mv	s0,a0
    80002408:	84ae                	mv	s1,a1
    8000240a:	854a                	mv	a0,s2
    8000240c:	00005597          	auipc	a1,0x5
    80002410:	a0c58593          	addi	a1,a1,-1524 # 80006e18 <softfloat_countLeadingZeros8+0x4a0>
    80002414:	ec06                	sd	ra,24(sp)
    80002416:	6a7030ef          	jal	ra,800062bc <strcmp>
    8000241a:	e909                	bnez	a0,8000242c <uart_prop+0x32>
    8000241c:	6808                	ld	a0,16(s0)
    8000241e:	00005597          	auipc	a1,0x5
    80002422:	baa58593          	addi	a1,a1,-1110 # 80006fc8 <softfloat_countLeadingZeros8+0x650>
    80002426:	697030ef          	jal	ra,800062bc <strcmp>
    8000242a:	cd19                	beqz	a0,80002448 <uart_prop+0x4e>
    8000242c:	00005597          	auipc	a1,0x5
    80002430:	82c58593          	addi	a1,a1,-2004 # 80006c58 <softfloat_countLeadingZeros8+0x2e0>
    80002434:	854a                	mv	a0,s2
    80002436:	687030ef          	jal	ra,800062bc <strcmp>
    8000243a:	cd19                	beqz	a0,80002458 <uart_prop+0x5e>
    8000243c:	60e2                	ld	ra,24(sp)
    8000243e:	6442                	ld	s0,16(sp)
    80002440:	64a2                	ld	s1,8(sp)
    80002442:	6902                	ld	s2,0(sp)
    80002444:	6105                	addi	sp,sp,32
    80002446:	8082                	ret
    80002448:	60e2                	ld	ra,24(sp)
    8000244a:	6442                	ld	s0,16(sp)
    8000244c:	4785                	li	a5,1
    8000244e:	c09c                	sw	a5,0(s1)
    80002450:	6902                	ld	s2,0(sp)
    80002452:	64a2                	ld	s1,8(sp)
    80002454:	6105                	addi	sp,sp,32
    80002456:	8082                	ret
    80002458:	601c                	ld	a5,0(s0)
    8000245a:	680c                	ld	a1,16(s0)
    8000245c:	6442                	ld	s0,16(sp)
    8000245e:	60e2                	ld	ra,24(sp)
    80002460:	6902                	ld	s2,0(sp)
    80002462:	6388                	ld	a0,0(a5)
    80002464:	00848613          	addi	a2,s1,8
    80002468:	64a2                	ld	s1,8(sp)
    8000246a:	6105                	addi	sp,sp,32
    8000246c:	fb7fe06f          	j	80001422 <fdt_get_address>

0000000080002470 <uart_putchar>:
    80002470:	00011697          	auipc	a3,0x11
    80002474:	bf868693          	addi	a3,a3,-1032 # 80013068 <uart>
    80002478:	629c                	ld	a5,0(a3)
    8000247a:	40a7a72f          	amoor.w	a4,a0,(a5)
    8000247e:	02071793          	slli	a5,a4,0x20
    80002482:	fe07cbe3          	bltz	a5,80002478 <uart_putchar+0x8>
    80002486:	8082                	ret

0000000080002488 <uart_getchar>:
    80002488:	00011797          	auipc	a5,0x11
    8000248c:	be07b783          	ld	a5,-1056(a5) # 80013068 <uart>
    80002490:	43dc                	lw	a5,4(a5)
    80002492:	2781                	sext.w	a5,a5
    80002494:	0007851b          	sext.w	a0,a5
    80002498:	0007c363          	bltz	a5,8000249e <uart_getchar+0x16>
    8000249c:	8082                	ret
    8000249e:	557d                	li	a0,-1
    800024a0:	8082                	ret

00000000800024a2 <query_uart>:
    800024a2:	715d                	addi	sp,sp,-80
    800024a4:	00000797          	auipc	a5,0x0
    800024a8:	f4c78793          	addi	a5,a5,-180 # 800023f0 <uart_open>
    800024ac:	ec3e                	sd	a5,24(sp)
    800024ae:	00000797          	auipc	a5,0x0
    800024b2:	f4c78793          	addi	a5,a5,-180 # 800023fa <uart_prop>
    800024b6:	f03e                	sd	a5,32(sp)
    800024b8:	00000797          	auipc	a5,0x0
    800024bc:	f1878793          	addi	a5,a5,-232 # 800023d0 <uart_done>
    800024c0:	f43e                	sd	a5,40(sp)
    800024c2:	082c                	addi	a1,sp,24
    800024c4:	003c                	addi	a5,sp,8
    800024c6:	e486                	sd	ra,72(sp)
    800024c8:	f802                	sd	zero,48(sp)
    800024ca:	fc3e                	sd	a5,56(sp)
    800024cc:	e21fe0ef          	jal	ra,800012ec <fdt_scan>
    800024d0:	60a6                	ld	ra,72(sp)
    800024d2:	6161                	addi	sp,sp,80
    800024d4:	8082                	ret

00000000800024d6 <uart16550_done>:
    800024d6:	419c                	lw	a5,0(a1)
    800024d8:	cb89                	beqz	a5,800024ea <uart16550_done+0x14>
    800024da:	6594                	ld	a3,8(a1)
    800024dc:	c699                	beqz	a3,800024ea <uart16550_done+0x14>
    800024de:	00011717          	auipc	a4,0x11
    800024e2:	b9270713          	addi	a4,a4,-1134 # 80013070 <uart16550>
    800024e6:	631c                	ld	a5,0(a4)
    800024e8:	c391                	beqz	a5,800024ec <uart16550_done+0x16>
    800024ea:	8082                	ret
    800024ec:	4d90                	lw	a2,24(a1)
    800024ee:	e651                	bnez	a2,8000257a <uart16550_done+0xa4>
    800024f0:	00007617          	auipc	a2,0x7
    800024f4:	bac62603          	lw	a2,-1108(a2) # 8000909c <uart16550_clock>
    800024f8:	4ddc                	lw	a5,28(a1)
    800024fa:	cb81                	beqz	a5,8000250a <uart16550_done+0x34>
    800024fc:	0047979b          	slliw	a5,a5,0x4
    80002500:	02f657bb          	divuw	a5,a2,a5
    80002504:	6541                	lui	a0,0x10
    80002506:	00a7e663          	bltu	a5,a0,80002512 <uart16550_done+0x3c>
    8000250a:	000967b7          	lui	a5,0x96
    8000250e:	02f657bb          	divuw	a5,a2,a5
    80002512:	49c8                	lw	a0,20(a1)
    80002514:	0105e603          	lwu	a2,16(a1)
    80002518:	4585                	li	a1,1
    8000251a:	00a595bb          	sllw	a1,a1,a0
    8000251e:	96b2                	add	a3,a3,a2
    80002520:	e314                	sd	a3,0(a4)
    80002522:	96ae                	add	a3,a3,a1
    80002524:	00068023          	sb	zero,0(a3)
    80002528:	6310                	ld	a2,0(a4)
    8000252a:	468d                	li	a3,3
    8000252c:	00a696bb          	sllw	a3,a3,a0
    80002530:	9636                	add	a2,a2,a3
    80002532:	f8000813          	li	a6,-128
    80002536:	01060023          	sb	a6,0(a2)
    8000253a:	6310                	ld	a2,0(a4)
    8000253c:	0ff7f813          	andi	a6,a5,255
    80002540:	0087d79b          	srliw	a5,a5,0x8
    80002544:	01060023          	sb	a6,0(a2)
    80002548:	6310                	ld	a2,0(a4)
    8000254a:	0ff7f793          	andi	a5,a5,255
    8000254e:	95b2                	add	a1,a1,a2
    80002550:	00f58023          	sb	a5,0(a1)
    80002554:	630c                	ld	a1,0(a4)
    80002556:	4789                	li	a5,2
    80002558:	00a7963b          	sllw	a2,a5,a0
    8000255c:	96ae                	add	a3,a3,a1
    8000255e:	478d                	li	a5,3
    80002560:	00f68023          	sb	a5,0(a3)
    80002564:	631c                	ld	a5,0(a4)
    80002566:	00011717          	auipc	a4,0x11
    8000256a:	aaa72323          	sw	a0,-1370(a4) # 8001300c <uart16550_reg_shift>
    8000256e:	fc700713          	li	a4,-57
    80002572:	97b2                	add	a5,a5,a2
    80002574:	00e78023          	sb	a4,0(a5) # 96000 <_ftext-0x7ff6a000>
    80002578:	8082                	ret
    8000257a:	00007797          	auipc	a5,0x7
    8000257e:	b2c7a123          	sw	a2,-1246(a5) # 8000909c <uart16550_clock>
    80002582:	bf9d                	j	800024f8 <uart16550_done+0x22>

0000000080002584 <uart16550_open>:
    80002584:	87ae                	mv	a5,a1
    80002586:	1141                	addi	sp,sp,-16
    80002588:	02000613          	li	a2,32
    8000258c:	4581                	li	a1,0
    8000258e:	853e                	mv	a0,a5
    80002590:	e406                	sd	ra,8(sp)
    80002592:	4cb030ef          	jal	ra,8000625c <memset>
    80002596:	60a2                	ld	ra,8(sp)
    80002598:	6725                	lui	a4,0x9
    8000259a:	60070713          	addi	a4,a4,1536 # 9600 <_ftext-0x7fff6a00>
    8000259e:	cd58                	sw	a4,28(a0)
    800025a0:	0141                	addi	sp,sp,16
    800025a2:	8082                	ret

00000000800025a4 <uart16550_prop>:
    800025a4:	1101                	addi	sp,sp,-32
    800025a6:	e426                	sd	s1,8(sp)
    800025a8:	6504                	ld	s1,8(a0)
    800025aa:	e822                	sd	s0,16(sp)
    800025ac:	e04a                	sd	s2,0(sp)
    800025ae:	842a                	mv	s0,a0
    800025b0:	892e                	mv	s2,a1
    800025b2:	8526                	mv	a0,s1
    800025b4:	00005597          	auipc	a1,0x5
    800025b8:	86458593          	addi	a1,a1,-1948 # 80006e18 <softfloat_countLeadingZeros8+0x4a0>
    800025bc:	ec06                	sd	ra,24(sp)
    800025be:	4ff030ef          	jal	ra,800062bc <strcmp>
    800025c2:	cd25                	beqz	a0,8000263a <uart16550_prop+0x96>
    800025c4:	00004597          	auipc	a1,0x4
    800025c8:	69458593          	addi	a1,a1,1684 # 80006c58 <softfloat_countLeadingZeros8+0x2e0>
    800025cc:	8526                	mv	a0,s1
    800025ce:	4ef030ef          	jal	ra,800062bc <strcmp>
    800025d2:	c921                	beqz	a0,80002622 <uart16550_prop+0x7e>
    800025d4:	00005597          	auipc	a1,0x5
    800025d8:	a1c58593          	addi	a1,a1,-1508 # 80006ff0 <softfloat_countLeadingZeros8+0x678>
    800025dc:	8526                	mv	a0,s1
    800025de:	4df030ef          	jal	ra,800062bc <strcmp>
    800025e2:	c559                	beqz	a0,80002670 <uart16550_prop+0xcc>
    800025e4:	00005597          	auipc	a1,0x5
    800025e8:	a1c58593          	addi	a1,a1,-1508 # 80007000 <softfloat_countLeadingZeros8+0x688>
    800025ec:	8526                	mv	a0,s1
    800025ee:	4cf030ef          	jal	ra,800062bc <strcmp>
    800025f2:	c959                	beqz	a0,80002688 <uart16550_prop+0xe4>
    800025f4:	00005597          	auipc	a1,0x5
    800025f8:	a1c58593          	addi	a1,a1,-1508 # 80007010 <softfloat_countLeadingZeros8+0x698>
    800025fc:	8526                	mv	a0,s1
    800025fe:	4bf030ef          	jal	ra,800062bc <strcmp>
    80002602:	c125                	beqz	a0,80002662 <uart16550_prop+0xbe>
    80002604:	00005597          	auipc	a1,0x5
    80002608:	a1c58593          	addi	a1,a1,-1508 # 80007020 <softfloat_countLeadingZeros8+0x6a8>
    8000260c:	8526                	mv	a0,s1
    8000260e:	4af030ef          	jal	ra,800062bc <strcmp>
    80002612:	e131                	bnez	a0,80002656 <uart16550_prop+0xb2>
    80002614:	4581                	li	a1,0
    80002616:	8522                	mv	a0,s0
    80002618:	eebfe0ef          	jal	ra,80001502 <fdt_get_value>
    8000261c:	00a92c23          	sw	a0,24(s2)
    80002620:	a81d                	j	80002656 <uart16550_prop+0xb2>
    80002622:	601c                	ld	a5,0(s0)
    80002624:	680c                	ld	a1,16(s0)
    80002626:	6442                	ld	s0,16(sp)
    80002628:	60e2                	ld	ra,24(sp)
    8000262a:	64a2                	ld	s1,8(sp)
    8000262c:	6388                	ld	a0,0(a5)
    8000262e:	00890613          	addi	a2,s2,8
    80002632:	6902                	ld	s2,0(sp)
    80002634:	6105                	addi	sp,sp,32
    80002636:	dedfe06f          	j	80001422 <fdt_get_address>
    8000263a:	00005597          	auipc	a1,0x5
    8000263e:	99e58593          	addi	a1,a1,-1634 # 80006fd8 <softfloat_countLeadingZeros8+0x660>
    80002642:	8522                	mv	a0,s0
    80002644:	ef5fe0ef          	jal	ra,80001538 <fdt_string_list_index>
    80002648:	57fd                	li	a5,-1
    8000264a:	84aa                	mv	s1,a0
    8000264c:	04f50a63          	beq	a0,a5,800026a0 <uart16550_prop+0xfc>
    80002650:	4785                	li	a5,1
    80002652:	00f92023          	sw	a5,0(s2)
    80002656:	60e2                	ld	ra,24(sp)
    80002658:	6442                	ld	s0,16(sp)
    8000265a:	64a2                	ld	s1,8(sp)
    8000265c:	6902                	ld	s2,0(sp)
    8000265e:	6105                	addi	sp,sp,32
    80002660:	8082                	ret
    80002662:	4581                	li	a1,0
    80002664:	8522                	mv	a0,s0
    80002666:	e9dfe0ef          	jal	ra,80001502 <fdt_get_value>
    8000266a:	00a92e23          	sw	a0,28(s2)
    8000266e:	b7e5                	j	80002656 <uart16550_prop+0xb2>
    80002670:	8522                	mv	a0,s0
    80002672:	4581                	li	a1,0
    80002674:	e8ffe0ef          	jal	ra,80001502 <fdt_get_value>
    80002678:	60e2                	ld	ra,24(sp)
    8000267a:	6442                	ld	s0,16(sp)
    8000267c:	00a92a23          	sw	a0,20(s2)
    80002680:	64a2                	ld	s1,8(sp)
    80002682:	6902                	ld	s2,0(sp)
    80002684:	6105                	addi	sp,sp,32
    80002686:	8082                	ret
    80002688:	8522                	mv	a0,s0
    8000268a:	4581                	li	a1,0
    8000268c:	e77fe0ef          	jal	ra,80001502 <fdt_get_value>
    80002690:	60e2                	ld	ra,24(sp)
    80002692:	6442                	ld	s0,16(sp)
    80002694:	00a92823          	sw	a0,16(s2)
    80002698:	64a2                	ld	s1,8(sp)
    8000269a:	6902                	ld	s2,0(sp)
    8000269c:	6105                	addi	sp,sp,32
    8000269e:	8082                	ret
    800026a0:	00005597          	auipc	a1,0x5
    800026a4:	94858593          	addi	a1,a1,-1720 # 80006fe8 <softfloat_countLeadingZeros8+0x670>
    800026a8:	8522                	mv	a0,s0
    800026aa:	e8ffe0ef          	jal	ra,80001538 <fdt_string_list_index>
    800026ae:	fa9511e3          	bne	a0,s1,80002650 <uart16550_prop+0xac>
    800026b2:	6404                	ld	s1,8(s0)
    800026b4:	bf01                	j	800025c4 <uart16550_prop+0x20>

00000000800026b6 <uart16550_putchar>:
    800026b6:	00011797          	auipc	a5,0x11
    800026ba:	9567a783          	lw	a5,-1706(a5) # 8001300c <uart16550_reg_shift>
    800026be:	4715                	li	a4,5
    800026c0:	00011697          	auipc	a3,0x11
    800026c4:	9b06b683          	ld	a3,-1616(a3) # 80013070 <uart16550>
    800026c8:	00f7173b          	sllw	a4,a4,a5
    800026cc:	9736                	add	a4,a4,a3
    800026ce:	00074783          	lbu	a5,0(a4)
    800026d2:	0207f793          	andi	a5,a5,32
    800026d6:	dfe5                	beqz	a5,800026ce <uart16550_putchar+0x18>
    800026d8:	00a68023          	sb	a0,0(a3)
    800026dc:	8082                	ret

00000000800026de <uart16550_getchar>:
    800026de:	00011697          	auipc	a3,0x11
    800026e2:	92e6a683          	lw	a3,-1746(a3) # 8001300c <uart16550_reg_shift>
    800026e6:	4795                	li	a5,5
    800026e8:	00011717          	auipc	a4,0x11
    800026ec:	98873703          	ld	a4,-1656(a4) # 80013070 <uart16550>
    800026f0:	00d797bb          	sllw	a5,a5,a3
    800026f4:	97ba                	add	a5,a5,a4
    800026f6:	0007c783          	lbu	a5,0(a5)
    800026fa:	8b85                	andi	a5,a5,1
    800026fc:	c791                	beqz	a5,80002708 <uart16550_getchar+0x2a>
    800026fe:	00074503          	lbu	a0,0(a4)
    80002702:	0ff57513          	andi	a0,a0,255
    80002706:	8082                	ret
    80002708:	557d                	li	a0,-1
    8000270a:	8082                	ret

000000008000270c <query_uart16550>:
    8000270c:	711d                	addi	sp,sp,-96
    8000270e:	00000797          	auipc	a5,0x0
    80002712:	e7678793          	addi	a5,a5,-394 # 80002584 <uart16550_open>
    80002716:	f43e                	sd	a5,40(sp)
    80002718:	00000797          	auipc	a5,0x0
    8000271c:	e8c78793          	addi	a5,a5,-372 # 800025a4 <uart16550_prop>
    80002720:	f83e                	sd	a5,48(sp)
    80002722:	00000797          	auipc	a5,0x0
    80002726:	db478793          	addi	a5,a5,-588 # 800024d6 <uart16550_done>
    8000272a:	fc3e                	sd	a5,56(sp)
    8000272c:	102c                	addi	a1,sp,40
    8000272e:	003c                	addi	a5,sp,8
    80002730:	ec86                	sd	ra,88(sp)
    80002732:	e082                	sd	zero,64(sp)
    80002734:	e4be                	sd	a5,72(sp)
    80002736:	bb7fe0ef          	jal	ra,800012ec <fdt_scan>
    8000273a:	60e6                	ld	ra,88(sp)
    8000273c:	6125                	addi	sp,sp,96
    8000273e:	8082                	ret

0000000080002740 <finisher_done>:
    80002740:	419c                	lw	a5,0(a1)
    80002742:	cb89                	beqz	a5,80002754 <finisher_done+0x14>
    80002744:	659c                	ld	a5,8(a1)
    80002746:	c799                	beqz	a5,80002754 <finisher_done+0x14>
    80002748:	00011717          	auipc	a4,0x11
    8000274c:	93070713          	addi	a4,a4,-1744 # 80013078 <finisher>
    80002750:	6314                	ld	a3,0(a4)
    80002752:	c291                	beqz	a3,80002756 <finisher_done+0x16>
    80002754:	8082                	ret
    80002756:	e31c                	sd	a5,0(a4)
    80002758:	8082                	ret

000000008000275a <finisher_open>:
    8000275a:	852e                	mv	a0,a1
    8000275c:	4641                	li	a2,16
    8000275e:	4581                	li	a1,0
    80002760:	2fd0306f          	j	8000625c <memset>

0000000080002764 <finisher_prop>:
    80002764:	1101                	addi	sp,sp,-32
    80002766:	e04a                	sd	s2,0(sp)
    80002768:	00853903          	ld	s2,8(a0) # 10008 <_ftext-0x7ffefff8>
    8000276c:	e822                	sd	s0,16(sp)
    8000276e:	e426                	sd	s1,8(sp)
    80002770:	842a                	mv	s0,a0
    80002772:	84ae                	mv	s1,a1
    80002774:	854a                	mv	a0,s2
    80002776:	00004597          	auipc	a1,0x4
    8000277a:	6a258593          	addi	a1,a1,1698 # 80006e18 <softfloat_countLeadingZeros8+0x4a0>
    8000277e:	ec06                	sd	ra,24(sp)
    80002780:	33d030ef          	jal	ra,800062bc <strcmp>
    80002784:	e909                	bnez	a0,80002796 <finisher_prop+0x32>
    80002786:	6808                	ld	a0,16(s0)
    80002788:	00005597          	auipc	a1,0x5
    8000278c:	8a858593          	addi	a1,a1,-1880 # 80007030 <softfloat_countLeadingZeros8+0x6b8>
    80002790:	32d030ef          	jal	ra,800062bc <strcmp>
    80002794:	cd19                	beqz	a0,800027b2 <finisher_prop+0x4e>
    80002796:	00004597          	auipc	a1,0x4
    8000279a:	4c258593          	addi	a1,a1,1218 # 80006c58 <softfloat_countLeadingZeros8+0x2e0>
    8000279e:	854a                	mv	a0,s2
    800027a0:	31d030ef          	jal	ra,800062bc <strcmp>
    800027a4:	cd19                	beqz	a0,800027c2 <finisher_prop+0x5e>
    800027a6:	60e2                	ld	ra,24(sp)
    800027a8:	6442                	ld	s0,16(sp)
    800027aa:	64a2                	ld	s1,8(sp)
    800027ac:	6902                	ld	s2,0(sp)
    800027ae:	6105                	addi	sp,sp,32
    800027b0:	8082                	ret
    800027b2:	60e2                	ld	ra,24(sp)
    800027b4:	6442                	ld	s0,16(sp)
    800027b6:	4785                	li	a5,1
    800027b8:	c09c                	sw	a5,0(s1)
    800027ba:	6902                	ld	s2,0(sp)
    800027bc:	64a2                	ld	s1,8(sp)
    800027be:	6105                	addi	sp,sp,32
    800027c0:	8082                	ret
    800027c2:	601c                	ld	a5,0(s0)
    800027c4:	680c                	ld	a1,16(s0)
    800027c6:	6442                	ld	s0,16(sp)
    800027c8:	60e2                	ld	ra,24(sp)
    800027ca:	6902                	ld	s2,0(sp)
    800027cc:	6388                	ld	a0,0(a5)
    800027ce:	00848613          	addi	a2,s1,8
    800027d2:	64a2                	ld	s1,8(sp)
    800027d4:	6105                	addi	sp,sp,32
    800027d6:	c4dfe06f          	j	80001422 <fdt_get_address>

00000000800027da <finisher_exit>:
    800027da:	00011797          	auipc	a5,0x11
    800027de:	89e7b783          	ld	a5,-1890(a5) # 80013078 <finisher>
    800027e2:	cf99                	beqz	a5,80002800 <finisher_exit+0x26>
    800027e4:	e511                	bnez	a0,800027f0 <finisher_exit+0x16>
    800027e6:	6715                	lui	a4,0x5
    800027e8:	55570713          	addi	a4,a4,1365 # 5555 <_ftext-0x7fffaaab>
    800027ec:	c398                	sw	a4,0(a5)
    800027ee:	8082                	ret
    800027f0:	670d                	lui	a4,0x3
    800027f2:	0105151b          	slliw	a0,a0,0x10
    800027f6:	33370713          	addi	a4,a4,819 # 3333 <_ftext-0x7fffcccd>
    800027fa:	8d59                	or	a0,a0,a4
    800027fc:	2501                	sext.w	a0,a0
    800027fe:	c388                	sw	a0,0(a5)
    80002800:	8082                	ret

0000000080002802 <query_finisher>:
    80002802:	715d                	addi	sp,sp,-80
    80002804:	00000797          	auipc	a5,0x0
    80002808:	f5678793          	addi	a5,a5,-170 # 8000275a <finisher_open>
    8000280c:	ec3e                	sd	a5,24(sp)
    8000280e:	00000797          	auipc	a5,0x0
    80002812:	f5678793          	addi	a5,a5,-170 # 80002764 <finisher_prop>
    80002816:	f03e                	sd	a5,32(sp)
    80002818:	00000797          	auipc	a5,0x0
    8000281c:	f2878793          	addi	a5,a5,-216 # 80002740 <finisher_done>
    80002820:	f43e                	sd	a5,40(sp)
    80002822:	082c                	addi	a1,sp,24
    80002824:	003c                	addi	a5,sp,8
    80002826:	e486                	sd	ra,72(sp)
    80002828:	f802                	sd	zero,48(sp)
    8000282a:	fc3e                	sd	a5,56(sp)
    8000282c:	ac1fe0ef          	jal	ra,800012ec <fdt_scan>
    80002830:	60a6                	ld	ra,72(sp)
    80002832:	6161                	addi	sp,sp,80
    80002834:	8082                	ret

0000000080002836 <get_f32_reg>:
    80002836:	e0000553          	fmv.x.w	a0,ft0
    8000283a:	00028067          	jr	t0
    8000283e:	e0008553          	fmv.x.w	a0,ft1
    80002842:	00028067          	jr	t0
    80002846:	e0010553          	fmv.x.w	a0,ft2
    8000284a:	00028067          	jr	t0
    8000284e:	e0018553          	fmv.x.w	a0,ft3
    80002852:	00028067          	jr	t0
    80002856:	e0020553          	fmv.x.w	a0,ft4
    8000285a:	00028067          	jr	t0
    8000285e:	e0028553          	fmv.x.w	a0,ft5
    80002862:	00028067          	jr	t0
    80002866:	e0030553          	fmv.x.w	a0,ft6
    8000286a:	00028067          	jr	t0
    8000286e:	e0038553          	fmv.x.w	a0,ft7
    80002872:	00028067          	jr	t0
    80002876:	e0040553          	fmv.x.w	a0,fs0
    8000287a:	00028067          	jr	t0
    8000287e:	e0048553          	fmv.x.w	a0,fs1
    80002882:	00028067          	jr	t0
    80002886:	e0050553          	fmv.x.w	a0,fa0
    8000288a:	00028067          	jr	t0
    8000288e:	e0058553          	fmv.x.w	a0,fa1
    80002892:	00028067          	jr	t0
    80002896:	e0060553          	fmv.x.w	a0,fa2
    8000289a:	00028067          	jr	t0
    8000289e:	e0068553          	fmv.x.w	a0,fa3
    800028a2:	00028067          	jr	t0
    800028a6:	e0070553          	fmv.x.w	a0,fa4
    800028aa:	00028067          	jr	t0
    800028ae:	e0078553          	fmv.x.w	a0,fa5
    800028b2:	00028067          	jr	t0
    800028b6:	e0080553          	fmv.x.w	a0,fa6
    800028ba:	00028067          	jr	t0
    800028be:	e0088553          	fmv.x.w	a0,fa7
    800028c2:	00028067          	jr	t0
    800028c6:	e0090553          	fmv.x.w	a0,fs2
    800028ca:	00028067          	jr	t0
    800028ce:	e0098553          	fmv.x.w	a0,fs3
    800028d2:	00028067          	jr	t0
    800028d6:	e00a0553          	fmv.x.w	a0,fs4
    800028da:	00028067          	jr	t0
    800028de:	e00a8553          	fmv.x.w	a0,fs5
    800028e2:	00028067          	jr	t0
    800028e6:	e00b0553          	fmv.x.w	a0,fs6
    800028ea:	00028067          	jr	t0
    800028ee:	e00b8553          	fmv.x.w	a0,fs7
    800028f2:	00028067          	jr	t0
    800028f6:	e00c0553          	fmv.x.w	a0,fs8
    800028fa:	00028067          	jr	t0
    800028fe:	e00c8553          	fmv.x.w	a0,fs9
    80002902:	00028067          	jr	t0
    80002906:	e00d0553          	fmv.x.w	a0,fs10
    8000290a:	00028067          	jr	t0
    8000290e:	e00d8553          	fmv.x.w	a0,fs11
    80002912:	00028067          	jr	t0
    80002916:	e00e0553          	fmv.x.w	a0,ft8
    8000291a:	00028067          	jr	t0
    8000291e:	e00e8553          	fmv.x.w	a0,ft9
    80002922:	00028067          	jr	t0
    80002926:	e00f0553          	fmv.x.w	a0,ft10
    8000292a:	00028067          	jr	t0
    8000292e:	e00f8553          	fmv.x.w	a0,ft11
    80002932:	00028067          	jr	t0

0000000080002936 <put_f32_reg>:
    80002936:	f0050053          	fmv.w.x	ft0,a0
    8000293a:	00028067          	jr	t0
    8000293e:	f00500d3          	fmv.w.x	ft1,a0
    80002942:	00028067          	jr	t0
    80002946:	f0050153          	fmv.w.x	ft2,a0
    8000294a:	00028067          	jr	t0
    8000294e:	f00501d3          	fmv.w.x	ft3,a0
    80002952:	00028067          	jr	t0
    80002956:	f0050253          	fmv.w.x	ft4,a0
    8000295a:	00028067          	jr	t0
    8000295e:	f00502d3          	fmv.w.x	ft5,a0
    80002962:	00028067          	jr	t0
    80002966:	f0050353          	fmv.w.x	ft6,a0
    8000296a:	00028067          	jr	t0
    8000296e:	f00503d3          	fmv.w.x	ft7,a0
    80002972:	00028067          	jr	t0
    80002976:	f0050453          	fmv.w.x	fs0,a0
    8000297a:	00028067          	jr	t0
    8000297e:	f00504d3          	fmv.w.x	fs1,a0
    80002982:	00028067          	jr	t0
    80002986:	f0050553          	fmv.w.x	fa0,a0
    8000298a:	00028067          	jr	t0
    8000298e:	f00505d3          	fmv.w.x	fa1,a0
    80002992:	00028067          	jr	t0
    80002996:	f0050653          	fmv.w.x	fa2,a0
    8000299a:	00028067          	jr	t0
    8000299e:	f00506d3          	fmv.w.x	fa3,a0
    800029a2:	00028067          	jr	t0
    800029a6:	f0050753          	fmv.w.x	fa4,a0
    800029aa:	00028067          	jr	t0
    800029ae:	f00507d3          	fmv.w.x	fa5,a0
    800029b2:	00028067          	jr	t0
    800029b6:	f0050853          	fmv.w.x	fa6,a0
    800029ba:	00028067          	jr	t0
    800029be:	f00508d3          	fmv.w.x	fa7,a0
    800029c2:	00028067          	jr	t0
    800029c6:	f0050953          	fmv.w.x	fs2,a0
    800029ca:	00028067          	jr	t0
    800029ce:	f00509d3          	fmv.w.x	fs3,a0
    800029d2:	00028067          	jr	t0
    800029d6:	f0050a53          	fmv.w.x	fs4,a0
    800029da:	00028067          	jr	t0
    800029de:	f0050ad3          	fmv.w.x	fs5,a0
    800029e2:	00028067          	jr	t0
    800029e6:	f0050b53          	fmv.w.x	fs6,a0
    800029ea:	00028067          	jr	t0
    800029ee:	f0050bd3          	fmv.w.x	fs7,a0
    800029f2:	00028067          	jr	t0
    800029f6:	f0050c53          	fmv.w.x	fs8,a0
    800029fa:	00028067          	jr	t0
    800029fe:	f0050cd3          	fmv.w.x	fs9,a0
    80002a02:	00028067          	jr	t0
    80002a06:	f0050d53          	fmv.w.x	fs10,a0
    80002a0a:	00028067          	jr	t0
    80002a0e:	f0050dd3          	fmv.w.x	fs11,a0
    80002a12:	00028067          	jr	t0
    80002a16:	f0050e53          	fmv.w.x	ft8,a0
    80002a1a:	00028067          	jr	t0
    80002a1e:	f0050ed3          	fmv.w.x	ft9,a0
    80002a22:	00028067          	jr	t0
    80002a26:	f0050f53          	fmv.w.x	ft10,a0
    80002a2a:	00028067          	jr	t0
    80002a2e:	f0050fd3          	fmv.w.x	ft11,a0
    80002a32:	00028067          	jr	t0

0000000080002a36 <get_f64_reg>:
    80002a36:	e2000553          	fmv.x.d	a0,ft0
    80002a3a:	00028067          	jr	t0
    80002a3e:	e2008553          	fmv.x.d	a0,ft1
    80002a42:	00028067          	jr	t0
    80002a46:	e2010553          	fmv.x.d	a0,ft2
    80002a4a:	00028067          	jr	t0
    80002a4e:	e2018553          	fmv.x.d	a0,ft3
    80002a52:	00028067          	jr	t0
    80002a56:	e2020553          	fmv.x.d	a0,ft4
    80002a5a:	00028067          	jr	t0
    80002a5e:	e2028553          	fmv.x.d	a0,ft5
    80002a62:	00028067          	jr	t0
    80002a66:	e2030553          	fmv.x.d	a0,ft6
    80002a6a:	00028067          	jr	t0
    80002a6e:	e2038553          	fmv.x.d	a0,ft7
    80002a72:	00028067          	jr	t0
    80002a76:	e2040553          	fmv.x.d	a0,fs0
    80002a7a:	00028067          	jr	t0
    80002a7e:	e2048553          	fmv.x.d	a0,fs1
    80002a82:	00028067          	jr	t0
    80002a86:	e2050553          	fmv.x.d	a0,fa0
    80002a8a:	00028067          	jr	t0
    80002a8e:	e2058553          	fmv.x.d	a0,fa1
    80002a92:	00028067          	jr	t0
    80002a96:	e2060553          	fmv.x.d	a0,fa2
    80002a9a:	00028067          	jr	t0
    80002a9e:	e2068553          	fmv.x.d	a0,fa3
    80002aa2:	00028067          	jr	t0
    80002aa6:	e2070553          	fmv.x.d	a0,fa4
    80002aaa:	00028067          	jr	t0
    80002aae:	e2078553          	fmv.x.d	a0,fa5
    80002ab2:	00028067          	jr	t0
    80002ab6:	e2080553          	fmv.x.d	a0,fa6
    80002aba:	00028067          	jr	t0
    80002abe:	e2088553          	fmv.x.d	a0,fa7
    80002ac2:	00028067          	jr	t0
    80002ac6:	e2090553          	fmv.x.d	a0,fs2
    80002aca:	00028067          	jr	t0
    80002ace:	e2098553          	fmv.x.d	a0,fs3
    80002ad2:	00028067          	jr	t0
    80002ad6:	e20a0553          	fmv.x.d	a0,fs4
    80002ada:	00028067          	jr	t0
    80002ade:	e20a8553          	fmv.x.d	a0,fs5
    80002ae2:	00028067          	jr	t0
    80002ae6:	e20b0553          	fmv.x.d	a0,fs6
    80002aea:	00028067          	jr	t0
    80002aee:	e20b8553          	fmv.x.d	a0,fs7
    80002af2:	00028067          	jr	t0
    80002af6:	e20c0553          	fmv.x.d	a0,fs8
    80002afa:	00028067          	jr	t0
    80002afe:	e20c8553          	fmv.x.d	a0,fs9
    80002b02:	00028067          	jr	t0
    80002b06:	e20d0553          	fmv.x.d	a0,fs10
    80002b0a:	00028067          	jr	t0
    80002b0e:	e20d8553          	fmv.x.d	a0,fs11
    80002b12:	00028067          	jr	t0
    80002b16:	e20e0553          	fmv.x.d	a0,ft8
    80002b1a:	00028067          	jr	t0
    80002b1e:	e20e8553          	fmv.x.d	a0,ft9
    80002b22:	00028067          	jr	t0
    80002b26:	e20f0553          	fmv.x.d	a0,ft10
    80002b2a:	00028067          	jr	t0
    80002b2e:	e20f8553          	fmv.x.d	a0,ft11
    80002b32:	00028067          	jr	t0

0000000080002b36 <put_f64_reg>:
    80002b36:	f2050053          	fmv.d.x	ft0,a0
    80002b3a:	00028067          	jr	t0
    80002b3e:	f20500d3          	fmv.d.x	ft1,a0
    80002b42:	00028067          	jr	t0
    80002b46:	f2050153          	fmv.d.x	ft2,a0
    80002b4a:	00028067          	jr	t0
    80002b4e:	f20501d3          	fmv.d.x	ft3,a0
    80002b52:	00028067          	jr	t0
    80002b56:	f2050253          	fmv.d.x	ft4,a0
    80002b5a:	00028067          	jr	t0
    80002b5e:	f20502d3          	fmv.d.x	ft5,a0
    80002b62:	00028067          	jr	t0
    80002b66:	f2050353          	fmv.d.x	ft6,a0
    80002b6a:	00028067          	jr	t0
    80002b6e:	f20503d3          	fmv.d.x	ft7,a0
    80002b72:	00028067          	jr	t0
    80002b76:	f2050453          	fmv.d.x	fs0,a0
    80002b7a:	00028067          	jr	t0
    80002b7e:	f20504d3          	fmv.d.x	fs1,a0
    80002b82:	00028067          	jr	t0
    80002b86:	f2050553          	fmv.d.x	fa0,a0
    80002b8a:	00028067          	jr	t0
    80002b8e:	f20505d3          	fmv.d.x	fa1,a0
    80002b92:	00028067          	jr	t0
    80002b96:	f2050653          	fmv.d.x	fa2,a0
    80002b9a:	00028067          	jr	t0
    80002b9e:	f20506d3          	fmv.d.x	fa3,a0
    80002ba2:	00028067          	jr	t0
    80002ba6:	f2050753          	fmv.d.x	fa4,a0
    80002baa:	00028067          	jr	t0
    80002bae:	f20507d3          	fmv.d.x	fa5,a0
    80002bb2:	00028067          	jr	t0
    80002bb6:	f2050853          	fmv.d.x	fa6,a0
    80002bba:	00028067          	jr	t0
    80002bbe:	f20508d3          	fmv.d.x	fa7,a0
    80002bc2:	00028067          	jr	t0
    80002bc6:	f2050953          	fmv.d.x	fs2,a0
    80002bca:	00028067          	jr	t0
    80002bce:	f20509d3          	fmv.d.x	fs3,a0
    80002bd2:	00028067          	jr	t0
    80002bd6:	f2050a53          	fmv.d.x	fs4,a0
    80002bda:	00028067          	jr	t0
    80002bde:	f2050ad3          	fmv.d.x	fs5,a0
    80002be2:	00028067          	jr	t0
    80002be6:	f2050b53          	fmv.d.x	fs6,a0
    80002bea:	00028067          	jr	t0
    80002bee:	f2050bd3          	fmv.d.x	fs7,a0
    80002bf2:	00028067          	jr	t0
    80002bf6:	f2050c53          	fmv.d.x	fs8,a0
    80002bfa:	00028067          	jr	t0
    80002bfe:	f2050cd3          	fmv.d.x	fs9,a0
    80002c02:	00028067          	jr	t0
    80002c06:	f2050d53          	fmv.d.x	fs10,a0
    80002c0a:	00028067          	jr	t0
    80002c0e:	f2050dd3          	fmv.d.x	fs11,a0
    80002c12:	00028067          	jr	t0
    80002c16:	f2050e53          	fmv.d.x	ft8,a0
    80002c1a:	00028067          	jr	t0
    80002c1e:	f2050ed3          	fmv.d.x	ft9,a0
    80002c22:	00028067          	jr	t0
    80002c26:	f2050f53          	fmv.d.x	ft10,a0
    80002c2a:	00028067          	jr	t0
    80002c2e:	f2050fd3          	fmv.d.x	ft11,a0
    80002c32:	00028067          	jr	t0

0000000080002c36 <truly_illegal_insn.constprop.0>:
    80002c36:	fd9fe06f          	j	80001c0e <redirect_trap>

0000000080002c3a <illegal_insn_trap>:
    80002c3a:	882e                	mv	a6,a1
    80002c3c:	87b2                	mv	a5,a2
    80002c3e:	300025f3          	csrr	a1,mstatus
    80002c42:	34302773          	csrr	a4,mtval
    80002c46:	488d                	li	a7,3
    80002c48:	00377313          	andi	t1,a4,3
    80002c4c:	03131463          	bne	t1,a7,80002c74 <illegal_insn_trap+0x3a>
    80002c50:	00478693          	addi	a3,a5,4
    80002c54:	34169073          	csrw	mepc,a3
    80002c58:	00004897          	auipc	a7,0x4
    80002c5c:	b8088893          	addi	a7,a7,-1152 # 800067d8 <illegal_insn_trap_table>
    80002c60:	07c77613          	andi	a2,a4,124
    80002c64:	9646                	add	a2,a2,a7
    80002c66:	00062303          	lw	t1,0(a2)
    80002c6a:	86ae                	mv	a3,a1
    80002c6c:	863e                	mv	a2,a5
    80002c6e:	9346                	add	t1,t1,a7
    80002c70:	85c2                	mv	a1,a6
    80002c72:	8302                	jr	t1
    80002c74:	c701                	beqz	a4,80002c7c <illegal_insn_trap+0x42>
    80002c76:	863a                	mv	a2,a4
    80002c78:	853e                	mv	a0,a5
    80002c7a:	bf75                	j	80002c36 <truly_illegal_insn.constprop.0>
    80002c7c:	000a05b7          	lui	a1,0xa0
    80002c80:	3005a6f3          	csrrs	a3,mstatus,a1
    80002c84:	00267313          	andi	t1,a2,2
    80002c88:	00031b63          	bnez	t1,80002c9e <illegal_insn_trap+0x64>
    80002c8c:	00066703          	lwu	a4,0(a2)
    80002c90:	01177333          	and	t1,a4,a7
    80002c94:	01130f63          	beq	t1,a7,80002cb2 <illegal_insn_trap+0x78>
    80002c98:	1742                	slli	a4,a4,0x30
    80002c9a:	9341                	srli	a4,a4,0x30
    80002c9c:	a819                	j	80002cb2 <illegal_insn_trap+0x78>
    80002c9e:	00065703          	lhu	a4,0(a2)
    80002ca2:	01177333          	and	t1,a4,a7
    80002ca6:	01131663          	bne	t1,a7,80002cb2 <illegal_insn_trap+0x78>
    80002caa:	00265303          	lhu	t1,2(a2)
    80002cae:	0342                	slli	t1,t1,0x10
    80002cb0:	971a                	add	a4,a4,t1
    80002cb2:	30069073          	csrw	mstatus,a3
    80002cb6:	00377613          	andi	a2,a4,3
    80002cba:	85b6                	mv	a1,a3
    80002cbc:	f9160ae3          	beq	a2,a7,80002c50 <illegal_insn_trap+0x16>
    80002cc0:	bf5d                	j	80002c76 <illegal_insn_trap+0x3c>

0000000080002cc2 <truly_illegal_insn>:
    80002cc2:	8532                	mv	a0,a2
    80002cc4:	85b6                	mv	a1,a3
    80002cc6:	863a                	mv	a2,a4
    80002cc8:	f47fe06f          	j	80001c0e <redirect_trap>

0000000080002ccc <emulate_system_opcode>:
    80002ccc:	6889                	lui	a7,0x2
    80002cce:	00c75813          	srli	a6,a4,0xc
    80002cd2:	80088893          	addi	a7,a7,-2048 # 1800 <_ftext-0x7fffe800>
    80002cd6:	832a                	mv	t1,a0
    80002cd8:	00f75e13          	srli	t3,a4,0xf
    80002cdc:	0f887793          	andi	a5,a6,248
    80002ce0:	85b6                	mv	a1,a3
    80002ce2:	0116f8b3          	and	a7,a3,a7
    80002ce6:	7ff00693          	li	a3,2047
    80002cea:	01fe7e93          	andi	t4,t3,31
    80002cee:	8532                	mv	a0,a2
    80002cf0:	00f30e33          	add	t3,t1,a5
    80002cf4:	0147579b          	srliw	a5,a4,0x14
    80002cf8:	0716e263          	bltu	a3,a7,80002d5c <emulate_system_opcode+0x90>
    80002cfc:	10602673          	csrr	a2,scounteren
    80002d00:	6885                	lui	a7,0x1
    80002d02:	b0488693          	addi	a3,a7,-1276 # b04 <_ftext-0x7ffff4fc>
    80002d06:	14d78d63          	beq	a5,a3,80002e60 <emulate_system_opcode+0x194>
    80002d0a:	02f6ec63          	bltu	a3,a5,80002d42 <emulate_system_opcode+0x76>
    80002d0e:	32400693          	li	a3,804
    80002d12:	0ed78d63          	beq	a5,a3,80002e0c <emulate_system_opcode+0x140>
    80002d16:	b0388893          	addi	a7,a7,-1277
    80002d1a:	07179063          	bne	a5,a7,80002d7a <emulate_system_opcode+0xae>
    80002d1e:	8a21                	andi	a2,a2,8
    80002d20:	ca49                	beqz	a2,80002db2 <emulate_system_opcode+0xe6>
    80002d22:	b03028f3          	csrr	a7,mhpmcounter3
    80002d26:	00787813          	andi	a6,a6,7
    80002d2a:	00004617          	auipc	a2,0x4
    80002d2e:	b2e60613          	addi	a2,a2,-1234 # 80006858 <illegal_insn_trap_table+0x80>
    80002d32:	080a                	slli	a6,a6,0x2
    80002d34:	9832                	add	a6,a6,a2
    80002d36:	00082683          	lw	a3,0(a6)
    80002d3a:	000e3803          	ld	a6,0(t3)
    80002d3e:	96b2                	add	a3,a3,a2
    80002d40:	8682                	jr	a3
    80002d42:	c0188693          	addi	a3,a7,-1023
    80002d46:	0cd78663          	beq	a5,a3,80002e12 <emulate_system_opcode+0x146>
    80002d4a:	c0288693          	addi	a3,a7,-1022
    80002d4e:	02d79d63          	bne	a5,a3,80002d88 <emulate_system_opcode+0xbc>
    80002d52:	8a11                	andi	a2,a2,4
    80002d54:	ce39                	beqz	a2,80002db2 <emulate_system_opcode+0xe6>
    80002d56:	b02028f3          	csrr	a7,minstret
    80002d5a:	b7f1                	j	80002d26 <emulate_system_opcode+0x5a>
    80002d5c:	6885                	lui	a7,0x1
    80002d5e:	b0488693          	addi	a3,a7,-1276 # b04 <_ftext-0x7ffff4fc>
    80002d62:	10d78163          	beq	a5,a3,80002e64 <emulate_system_opcode+0x198>
    80002d66:	02f6ea63          	bltu	a3,a5,80002d9a <emulate_system_opcode+0xce>
    80002d6a:	32400693          	li	a3,804
    80002d6e:	08d78f63          	beq	a5,a3,80002e0c <emulate_system_opcode+0x140>
    80002d72:	b0388893          	addi	a7,a7,-1277
    80002d76:	fb1786e3          	beq	a5,a7,80002d22 <emulate_system_opcode+0x56>
    80002d7a:	32300693          	li	a3,803
    80002d7e:	02d79a63          	bne	a5,a3,80002db2 <emulate_system_opcode+0xe6>
    80002d82:	323028f3          	csrr	a7,mhpmevent3
    80002d86:	b745                	j	80002d26 <emulate_system_opcode+0x5a>
    80002d88:	c0088893          	addi	a7,a7,-1024
    80002d8c:	03179363          	bne	a5,a7,80002db2 <emulate_system_opcode+0xe6>
    80002d90:	8a05                	andi	a2,a2,1
    80002d92:	c205                	beqz	a2,80002db2 <emulate_system_opcode+0xe6>
    80002d94:	b00028f3          	csrr	a7,mcycle
    80002d98:	b779                	j	80002d26 <emulate_system_opcode+0x5a>
    80002d9a:	c0188693          	addi	a3,a7,-1023
    80002d9e:	06d78c63          	beq	a5,a3,80002e16 <emulate_system_opcode+0x14a>
    80002da2:	c0288693          	addi	a3,a7,-1022
    80002da6:	fad788e3          	beq	a5,a3,80002d56 <emulate_system_opcode+0x8a>
    80002daa:	c0088893          	addi	a7,a7,-1024
    80002dae:	ff1783e3          	beq	a5,a7,80002d94 <emulate_system_opcode+0xc8>
    80002db2:	863a                	mv	a2,a4
    80002db4:	b549                	j	80002c36 <truly_illegal_insn.constprop.0>
    80002db6:	8876                	mv	a6,t4
    80002db8:	6685                	lui	a3,0x1
    80002dba:	b0468613          	addi	a2,a3,-1276 # b04 <_ftext-0x7ffff4fc>
    80002dbe:	0ac78c63          	beq	a5,a2,80002e76 <emulate_system_opcode+0x1aa>
    80002dc2:	02f66a63          	bltu	a2,a5,80002df6 <emulate_system_opcode+0x12a>
    80002dc6:	32400613          	li	a2,804
    80002dca:	0ac78363          	beq	a5,a2,80002e70 <emulate_system_opcode+0x1a4>
    80002dce:	b0368693          	addi	a3,a3,-1277
    80002dd2:	00d79b63          	bne	a5,a3,80002de8 <emulate_system_opcode+0x11c>
    80002dd6:	b0381073          	csrw	mhpmcounter3,a6
    80002dda:	8311                	srli	a4,a4,0x4
    80002ddc:	0f877713          	andi	a4,a4,248
    80002de0:	933a                	add	t1,t1,a4
    80002de2:	01133023          	sd	a7,0(t1)
    80002de6:	8082                	ret
    80002de8:	32300693          	li	a3,803
    80002dec:	fcd793e3          	bne	a5,a3,80002db2 <emulate_system_opcode+0xe6>
    80002df0:	32381073          	csrw	mhpmevent3,a6
    80002df4:	b7dd                	j	80002dda <emulate_system_opcode+0x10e>
    80002df6:	c0068613          	addi	a2,a3,-1024
    80002dfa:	06c78863          	beq	a5,a2,80002e6a <emulate_system_opcode+0x19e>
    80002dfe:	c0268693          	addi	a3,a3,-1022
    80002e02:	fad798e3          	bne	a5,a3,80002db2 <emulate_system_opcode+0xe6>
    80002e06:	b0281073          	csrw	minstret,a6
    80002e0a:	bfc1                	j	80002dda <emulate_system_opcode+0x10e>
    80002e0c:	324028f3          	csrr	a7,mhpmevent4
    80002e10:	bf19                	j	80002d26 <emulate_system_opcode+0x5a>
    80002e12:	8a09                	andi	a2,a2,2
    80002e14:	de59                	beqz	a2,80002db2 <emulate_system_opcode+0xe6>
    80002e16:	00010697          	auipc	a3,0x10
    80002e1a:	22a6b683          	ld	a3,554(a3) # 80013040 <mtime>
    80002e1e:	0006b883          	ld	a7,0(a3)
    80002e22:	b711                	j	80002d26 <emulate_system_opcode+0x5a>
    80002e24:	fff84813          	not	a6,a6
    80002e28:	01187833          	and	a6,a6,a7
    80002e2c:	f80e96e3          	bnez	t4,80002db8 <emulate_system_opcode+0xec>
    80002e30:	8311                	srli	a4,a4,0x4
    80002e32:	0f877713          	andi	a4,a4,248
    80002e36:	933a                	add	t1,t1,a4
    80002e38:	01133023          	sd	a7,0(t1)
    80002e3c:	8082                	ret
    80002e3e:	fffec813          	not	a6,t4
    80002e42:	01187833          	and	a6,a6,a7
    80002e46:	fe0e85e3          	beqz	t4,80002e30 <emulate_system_opcode+0x164>
    80002e4a:	b7bd                	j	80002db8 <emulate_system_opcode+0xec>
    80002e4c:	01186833          	or	a6,a6,a7
    80002e50:	fe0e80e3          	beqz	t4,80002e30 <emulate_system_opcode+0x164>
    80002e54:	b795                	j	80002db8 <emulate_system_opcode+0xec>
    80002e56:	011ee833          	or	a6,t4,a7
    80002e5a:	fc0e8be3          	beqz	t4,80002e30 <emulate_system_opcode+0x164>
    80002e5e:	bfa9                	j	80002db8 <emulate_system_opcode+0xec>
    80002e60:	8a41                	andi	a2,a2,16
    80002e62:	da21                	beqz	a2,80002db2 <emulate_system_opcode+0xe6>
    80002e64:	b04028f3          	csrr	a7,mhpmcounter4
    80002e68:	bd7d                	j	80002d26 <emulate_system_opcode+0x5a>
    80002e6a:	b0081073          	csrw	mcycle,a6
    80002e6e:	b7b5                	j	80002dda <emulate_system_opcode+0x10e>
    80002e70:	32481073          	csrw	mhpmevent4,a6
    80002e74:	b79d                	j	80002dda <emulate_system_opcode+0x10e>
    80002e76:	b0481073          	csrw	mhpmcounter4,a6
    80002e7a:	b785                	j	80002dda <emulate_system_opcode+0x10e>

0000000080002e7c <emulate_fp>:
    80002e7c:	6799                	lui	a5,0x6
    80002e7e:	8ff5                	and	a5,a5,a3
    80002e80:	c785                	beqz	a5,80002ea8 <emulate_fp+0x2c>
    80002e82:	01975793          	srli	a5,a4,0x19
    80002e86:	00004317          	auipc	t1,0x4
    80002e8a:	9f230313          	addi	t1,t1,-1550 # 80006878 <fp_emulation_table>
    80002e8e:	07c7f793          	andi	a5,a5,124
    80002e92:	979a                	add	a5,a5,t1
    80002e94:	439c                	lw	a5,0(a5)
    80002e96:	933e                	add	t1,t1,a5
    80002e98:	00202273          	frrm	tp
    80002e9c:	679d                	lui	a5,0x7
    80002e9e:	00f77833          	and	a6,a4,a5
    80002ea2:	00f81463          	bne	a6,a5,80002eaa <emulate_fp+0x2e>
    80002ea6:	8302                	jr	t1
    80002ea8:	bd29                	j	80002cc2 <truly_illegal_insn>
    80002eaa:	00c75793          	srli	a5,a4,0xc
    80002eae:	8b9d                	andi	a5,a5,7
    80002eb0:	4811                	li	a6,4
    80002eb2:	fef86be3          	bltu	a6,a5,80002ea8 <emulate_fp+0x2c>
    80002eb6:	823e                	mv	tp,a5
    80002eb8:	b7fd                	j	80002ea6 <emulate_fp+0x2a>

0000000080002eba <emulate_any_fadd>:
    80002eba:	1141                	addi	sp,sp,-16
    80002ebc:	01975813          	srli	a6,a4,0x19
    80002ec0:	e022                	sd	s0,0(sp)
    80002ec2:	e406                	sd	ra,8(sp)
    80002ec4:	00387813          	andi	a6,a6,3
    80002ec8:	843a                	mv	s0,a4
    80002eca:	04080e63          	beqz	a6,80002f26 <emulate_any_fadd+0x6c>
    80002ece:	4885                	li	a7,1
    80002ed0:	05181763          	bne	a6,a7,80002f1e <emulate_any_fadd+0x64>
    80002ed4:	00c75513          	srli	a0,a4,0xc
    80002ed8:	01175693          	srli	a3,a4,0x11
    80002edc:	1782                	slli	a5,a5,0x20
    80002ede:	0f857513          	andi	a0,a0,248
    80002ee2:	00000717          	auipc	a4,0x0
    80002ee6:	972a                	add	a4,a4,a0
    80002ee8:	b54702e7          	jalr	t0,-1196(a4) # 80002a36 <get_f64_reg>
    80002eec:	872a                	mv	a4,a0
    80002eee:	8011                	srli	s0,s0,0x4
    80002ef0:	0f86f513          	andi	a0,a3,248
    80002ef4:	00000697          	auipc	a3,0x0
    80002ef8:	96aa                	add	a3,a3,a0
    80002efa:	b42682e7          	jalr	t0,-1214(a3) # 80002a36 <get_f64_reg>
    80002efe:	00a7c5b3          	xor	a1,a5,a0
    80002f02:	853a                	mv	a0,a4
    80002f04:	41a010ef          	jal	ra,8000431e <f64_add>
    80002f08:	0f847413          	andi	s0,s0,248
    80002f0c:	00000797          	auipc	a5,0x0
    80002f10:	97a2                	add	a5,a5,s0
    80002f12:	c2a782e7          	jalr	t0,-982(a5) # 80002b36 <put_f64_reg>
    80002f16:	60a2                	ld	ra,8(sp)
    80002f18:	6402                	ld	s0,0(sp)
    80002f1a:	0141                	addi	sp,sp,16
    80002f1c:	8082                	ret
    80002f1e:	6402                	ld	s0,0(sp)
    80002f20:	60a2                	ld	ra,8(sp)
    80002f22:	0141                	addi	sp,sp,16
    80002f24:	bb79                	j	80002cc2 <truly_illegal_insn>
    80002f26:	01175693          	srli	a3,a4,0x11
    80002f2a:	00c75513          	srli	a0,a4,0xc
    80002f2e:	0f857513          	andi	a0,a0,248
    80002f32:	00000717          	auipc	a4,0x0
    80002f36:	972a                	add	a4,a4,a0
    80002f38:	904702e7          	jalr	t0,-1788(a4) # 80002836 <get_f32_reg>
    80002f3c:	0005071b          	sext.w	a4,a0
    80002f40:	0f86f513          	andi	a0,a3,248
    80002f44:	00000697          	auipc	a3,0x0
    80002f48:	96aa                	add	a3,a3,a0
    80002f4a:	8f2682e7          	jalr	t0,-1806(a3) # 80002836 <get_f32_reg>
    80002f4e:	0005059b          	sext.w	a1,a0
    80002f52:	8dbd                	xor	a1,a1,a5
    80002f54:	853a                	mv	a0,a4
    80002f56:	8011                	srli	s0,s0,0x4
    80002f58:	54b000ef          	jal	ra,80003ca2 <f32_add>
    80002f5c:	0f847413          	andi	s0,s0,248
    80002f60:	00000797          	auipc	a5,0x0
    80002f64:	97a2                	add	a5,a5,s0
    80002f66:	9d6782e7          	jalr	t0,-1578(a5) # 80002936 <put_f32_reg>
    80002f6a:	60a2                	ld	ra,8(sp)
    80002f6c:	6402                	ld	s0,0(sp)
    80002f6e:	0141                	addi	sp,sp,16
    80002f70:	8082                	ret

0000000080002f72 <emulate_fadd>:
    80002f72:	4781                	li	a5,0
    80002f74:	b799                	j	80002eba <emulate_any_fadd>

0000000080002f76 <emulate_fsub>:
    80002f76:	800007b7          	lui	a5,0x80000
    80002f7a:	b781                	j	80002eba <emulate_any_fadd>

0000000080002f7c <emulate_fmul>:
    80002f7c:	1141                	addi	sp,sp,-16
    80002f7e:	01975793          	srli	a5,a4,0x19
    80002f82:	e022                	sd	s0,0(sp)
    80002f84:	e406                	sd	ra,8(sp)
    80002f86:	8b8d                	andi	a5,a5,3
    80002f88:	843a                	mv	s0,a4
    80002f8a:	cbb1                	beqz	a5,80002fde <emulate_fmul+0x62>
    80002f8c:	4805                	li	a6,1
    80002f8e:	05079463          	bne	a5,a6,80002fd6 <emulate_fmul+0x5a>
    80002f92:	00c75513          	srli	a0,a4,0xc
    80002f96:	0f857513          	andi	a0,a0,248
    80002f9a:	8345                	srli	a4,a4,0x11
    80002f9c:	00000797          	auipc	a5,0x0
    80002fa0:	97aa                	add	a5,a5,a0
    80002fa2:	a9a782e7          	jalr	t0,-1382(a5) # 80002a36 <get_f64_reg>
    80002fa6:	87aa                	mv	a5,a0
    80002fa8:	8011                	srli	s0,s0,0x4
    80002faa:	0f877513          	andi	a0,a4,248
    80002fae:	00000717          	auipc	a4,0x0
    80002fb2:	972a                	add	a4,a4,a0
    80002fb4:	a88702e7          	jalr	t0,-1400(a4) # 80002a36 <get_f64_reg>
    80002fb8:	85aa                	mv	a1,a0
    80002fba:	853e                	mv	a0,a5
    80002fbc:	68e010ef          	jal	ra,8000464a <f64_mul>
    80002fc0:	0f847413          	andi	s0,s0,248
    80002fc4:	00000797          	auipc	a5,0x0
    80002fc8:	97a2                	add	a5,a5,s0
    80002fca:	b72782e7          	jalr	t0,-1166(a5) # 80002b36 <put_f64_reg>
    80002fce:	60a2                	ld	ra,8(sp)
    80002fd0:	6402                	ld	s0,0(sp)
    80002fd2:	0141                	addi	sp,sp,16
    80002fd4:	8082                	ret
    80002fd6:	6402                	ld	s0,0(sp)
    80002fd8:	60a2                	ld	ra,8(sp)
    80002fda:	0141                	addi	sp,sp,16
    80002fdc:	b1dd                	j	80002cc2 <truly_illegal_insn>
    80002fde:	00c75513          	srli	a0,a4,0xc
    80002fe2:	0f857513          	andi	a0,a0,248
    80002fe6:	8345                	srli	a4,a4,0x11
    80002fe8:	00000797          	auipc	a5,0x0
    80002fec:	97aa                	add	a5,a5,a0
    80002fee:	84e782e7          	jalr	t0,-1970(a5) # 80002836 <get_f32_reg>
    80002ff2:	0005079b          	sext.w	a5,a0
    80002ff6:	8011                	srli	s0,s0,0x4
    80002ff8:	0f877513          	andi	a0,a4,248
    80002ffc:	00000717          	auipc	a4,0x0
    80003000:	972a                	add	a4,a4,a0
    80003002:	83a702e7          	jalr	t0,-1990(a4) # 80002836 <get_f32_reg>
    80003006:	85aa                	mv	a1,a0
    80003008:	853e                	mv	a0,a5
    8000300a:	7a1000ef          	jal	ra,80003faa <f32_mul>
    8000300e:	0f847413          	andi	s0,s0,248
    80003012:	00000797          	auipc	a5,0x0
    80003016:	97a2                	add	a5,a5,s0
    80003018:	924782e7          	jalr	t0,-1756(a5) # 80002936 <put_f32_reg>
    8000301c:	60a2                	ld	ra,8(sp)
    8000301e:	6402                	ld	s0,0(sp)
    80003020:	0141                	addi	sp,sp,16
    80003022:	8082                	ret

0000000080003024 <emulate_fdiv>:
    80003024:	1141                	addi	sp,sp,-16
    80003026:	01975793          	srli	a5,a4,0x19
    8000302a:	e022                	sd	s0,0(sp)
    8000302c:	e406                	sd	ra,8(sp)
    8000302e:	8b8d                	andi	a5,a5,3
    80003030:	843a                	mv	s0,a4
    80003032:	cbb1                	beqz	a5,80003086 <emulate_fdiv+0x62>
    80003034:	4805                	li	a6,1
    80003036:	05079463          	bne	a5,a6,8000307e <emulate_fdiv+0x5a>
    8000303a:	00c75513          	srli	a0,a4,0xc
    8000303e:	0f857513          	andi	a0,a0,248
    80003042:	8345                	srli	a4,a4,0x11
    80003044:	00000797          	auipc	a5,0x0
    80003048:	97aa                	add	a5,a5,a0
    8000304a:	9f2782e7          	jalr	t0,-1550(a5) # 80002a36 <get_f64_reg>
    8000304e:	87aa                	mv	a5,a0
    80003050:	8011                	srli	s0,s0,0x4
    80003052:	0f877513          	andi	a0,a4,248
    80003056:	00000717          	auipc	a4,0x0
    8000305a:	972a                	add	a4,a4,a0
    8000305c:	9e0702e7          	jalr	t0,-1568(a4) # 80002a36 <get_f64_reg>
    80003060:	85aa                	mv	a1,a0
    80003062:	853e                	mv	a0,a5
    80003064:	2d8010ef          	jal	ra,8000433c <f64_div>
    80003068:	0f847413          	andi	s0,s0,248
    8000306c:	00000797          	auipc	a5,0x0
    80003070:	97a2                	add	a5,a5,s0
    80003072:	aca782e7          	jalr	t0,-1334(a5) # 80002b36 <put_f64_reg>
    80003076:	60a2                	ld	ra,8(sp)
    80003078:	6402                	ld	s0,0(sp)
    8000307a:	0141                	addi	sp,sp,16
    8000307c:	8082                	ret
    8000307e:	6402                	ld	s0,0(sp)
    80003080:	60a2                	ld	ra,8(sp)
    80003082:	0141                	addi	sp,sp,16
    80003084:	b93d                	j	80002cc2 <truly_illegal_insn>
    80003086:	00c75513          	srli	a0,a4,0xc
    8000308a:	0f857513          	andi	a0,a0,248
    8000308e:	8345                	srli	a4,a4,0x11
    80003090:	fffff797          	auipc	a5,0xfffff
    80003094:	97aa                	add	a5,a5,a0
    80003096:	7a6782e7          	jalr	t0,1958(a5) # 80002836 <get_f32_reg>
    8000309a:	0005079b          	sext.w	a5,a0
    8000309e:	8011                	srli	s0,s0,0x4
    800030a0:	0f877513          	andi	a0,a4,248
    800030a4:	fffff717          	auipc	a4,0xfffff
    800030a8:	972a                	add	a4,a4,a0
    800030aa:	792702e7          	jalr	t0,1938(a4) # 80002836 <get_f32_reg>
    800030ae:	85aa                	mv	a1,a0
    800030b0:	853e                	mv	a0,a5
    800030b2:	413000ef          	jal	ra,80003cc4 <f32_div>
    800030b6:	0f847413          	andi	s0,s0,248
    800030ba:	00000797          	auipc	a5,0x0
    800030be:	97a2                	add	a5,a5,s0
    800030c0:	87c782e7          	jalr	t0,-1924(a5) # 80002936 <put_f32_reg>
    800030c4:	60a2                	ld	ra,8(sp)
    800030c6:	6402                	ld	s0,0(sp)
    800030c8:	0141                	addi	sp,sp,16
    800030ca:	8082                	ret

00000000800030cc <emulate_fsqrt>:
    800030cc:	1141                	addi	sp,sp,-16
    800030ce:	01475793          	srli	a5,a4,0x14
    800030d2:	e022                	sd	s0,0(sp)
    800030d4:	e406                	sd	ra,8(sp)
    800030d6:	8bfd                	andi	a5,a5,31
    800030d8:	843a                	mv	s0,a4
    800030da:	ef9d                	bnez	a5,80003118 <emulate_fsqrt+0x4c>
    800030dc:	01975793          	srli	a5,a4,0x19
    800030e0:	8b8d                	andi	a5,a5,3
    800030e2:	c3a1                	beqz	a5,80003122 <emulate_fsqrt+0x56>
    800030e4:	4705                	li	a4,1
    800030e6:	02e79963          	bne	a5,a4,80003118 <emulate_fsqrt+0x4c>
    800030ea:	00c45513          	srli	a0,s0,0xc
    800030ee:	8011                	srli	s0,s0,0x4
    800030f0:	0f857513          	andi	a0,a0,248
    800030f4:	0f847413          	andi	s0,s0,248
    800030f8:	00000797          	auipc	a5,0x0
    800030fc:	97aa                	add	a5,a5,a0
    800030fe:	93e782e7          	jalr	t0,-1730(a5) # 80002a36 <get_f64_reg>
    80003102:	676010ef          	jal	ra,80004778 <f64_sqrt>
    80003106:	00000797          	auipc	a5,0x0
    8000310a:	97a2                	add	a5,a5,s0
    8000310c:	a30782e7          	jalr	t0,-1488(a5) # 80002b36 <put_f64_reg>
    80003110:	60a2                	ld	ra,8(sp)
    80003112:	6402                	ld	s0,0(sp)
    80003114:	0141                	addi	sp,sp,16
    80003116:	8082                	ret
    80003118:	8722                	mv	a4,s0
    8000311a:	6402                	ld	s0,0(sp)
    8000311c:	60a2                	ld	ra,8(sp)
    8000311e:	0141                	addi	sp,sp,16
    80003120:	b64d                	j	80002cc2 <truly_illegal_insn>
    80003122:	00c75513          	srli	a0,a4,0xc
    80003126:	8011                	srli	s0,s0,0x4
    80003128:	0f857513          	andi	a0,a0,248
    8000312c:	0f847413          	andi	s0,s0,248
    80003130:	fffff797          	auipc	a5,0xfffff
    80003134:	97aa                	add	a5,a5,a0
    80003136:	706782e7          	jalr	t0,1798(a5) # 80002836 <get_f32_reg>
    8000313a:	7b5000ef          	jal	ra,800040ee <f32_sqrt>
    8000313e:	fffff797          	auipc	a5,0xfffff
    80003142:	97a2                	add	a5,a5,s0
    80003144:	7f8782e7          	jalr	t0,2040(a5) # 80002936 <put_f32_reg>
    80003148:	60a2                	ld	ra,8(sp)
    8000314a:	6402                	ld	s0,0(sp)
    8000314c:	0141                	addi	sp,sp,16
    8000314e:	8082                	ret

0000000080003150 <emulate_fsgnj>:
    80003150:	00c75893          	srli	a7,a4,0xc
    80003154:	0078f813          	andi	a6,a7,7
    80003158:	4789                	li	a5,2
    8000315a:	0008831b          	sext.w	t1,a7
    8000315e:	0d07c163          	blt	a5,a6,80003220 <emulate_fsgnj+0xd0>
    80003162:	01975793          	srli	a5,a4,0x19
    80003166:	8b8d                	andi	a5,a5,3
    80003168:	cfb9                	beqz	a5,800031c6 <emulate_fsgnj+0x76>
    8000316a:	4305                	li	t1,1
    8000316c:	0a679a63          	bne	a5,t1,80003220 <emulate_fsgnj+0xd0>
    80003170:	01175793          	srli	a5,a4,0x11
    80003174:	0f88f513          	andi	a0,a7,248
    80003178:	00000697          	auipc	a3,0x0
    8000317c:	96aa                	add	a3,a3,a0
    8000317e:	8be682e7          	jalr	t0,-1858(a3) # 80002a36 <get_f64_reg>
    80003182:	86aa                	mv	a3,a0
    80003184:	03f6d593          	srli	a1,a3,0x3f
    80003188:	00185613          	srli	a2,a6,0x1
    8000318c:	0f87f513          	andi	a0,a5,248
    80003190:	00000797          	auipc	a5,0x0
    80003194:	97aa                	add	a5,a5,a0
    80003196:	8a6782e7          	jalr	t0,-1882(a5) # 80002a36 <get_f64_reg>
    8000319a:	03f55793          	srli	a5,a0,0x3f
    8000319e:	8e6d                	and	a2,a2,a1
    800031a0:	0107c833          	xor	a6,a5,a6
    800031a4:	00c84833          	xor	a6,a6,a2
    800031a8:	00169513          	slli	a0,a3,0x1
    800031ac:	187e                	slli	a6,a6,0x3f
    800031ae:	8105                	srli	a0,a0,0x1
    800031b0:	8311                	srli	a4,a4,0x4
    800031b2:	00a86533          	or	a0,a6,a0
    800031b6:	0f877713          	andi	a4,a4,248
    800031ba:	00000797          	auipc	a5,0x0
    800031be:	97ba                	add	a5,a5,a4
    800031c0:	97c782e7          	jalr	t0,-1668(a5) # 80002b36 <put_f64_reg>
    800031c4:	8082                	ret
    800031c6:	01175693          	srli	a3,a4,0x11
    800031ca:	0f837513          	andi	a0,t1,248
    800031ce:	fffff797          	auipc	a5,0xfffff
    800031d2:	97aa                	add	a5,a5,a0
    800031d4:	668782e7          	jalr	t0,1640(a5) # 80002836 <get_f32_reg>
    800031d8:	0005079b          	sext.w	a5,a0
    800031dc:	4018561b          	sraiw	a2,a6,0x1
    800031e0:	0f86f513          	andi	a0,a3,248
    800031e4:	03f7d693          	srli	a3,a5,0x3f
    800031e8:	fffff597          	auipc	a1,0xfffff
    800031ec:	95aa                	add	a1,a1,a0
    800031ee:	64e582e7          	jalr	t0,1614(a1) # 80002836 <get_f32_reg>
    800031f2:	01f5551b          	srliw	a0,a0,0x1f
    800031f6:	8ef1                	and	a3,a3,a2
    800031f8:	00a84833          	xor	a6,a6,a0
    800031fc:	00d84833          	xor	a6,a6,a3
    80003200:	02179513          	slli	a0,a5,0x21
    80003204:	01f8181b          	slliw	a6,a6,0x1f
    80003208:	9105                	srli	a0,a0,0x21
    8000320a:	8311                	srli	a4,a4,0x4
    8000320c:	01056533          	or	a0,a0,a6
    80003210:	0f877713          	andi	a4,a4,248
    80003214:	fffff797          	auipc	a5,0xfffff
    80003218:	97ba                	add	a5,a5,a4
    8000321a:	722782e7          	jalr	t0,1826(a5) # 80002936 <put_f32_reg>
    8000321e:	8082                	ret
    80003220:	aa3ff06f          	j	80002cc2 <truly_illegal_insn>

0000000080003224 <emulate_fmin>:
    80003224:	1101                	addi	sp,sp,-32
    80003226:	00c75793          	srli	a5,a4,0xc
    8000322a:	e822                	sd	s0,16(sp)
    8000322c:	ec06                	sd	ra,24(sp)
    8000322e:	843a                	mv	s0,a4
    80003230:	e426                	sd	s1,8(sp)
    80003232:	e04a                	sd	s2,0(sp)
    80003234:	0067f713          	andi	a4,a5,6
    80003238:	e36d                	bnez	a4,8000331a <emulate_fmin+0xf6>
    8000323a:	01945713          	srli	a4,s0,0x19
    8000323e:	8b0d                	andi	a4,a4,3
    80003240:	0077f813          	andi	a6,a5,7
    80003244:	c735                	beqz	a4,800032b0 <emulate_fmin+0x8c>
    80003246:	4885                	li	a7,1
    80003248:	0d171963          	bne	a4,a7,8000331a <emulate_fmin+0xf6>
    8000324c:	01145713          	srli	a4,s0,0x11
    80003250:	0f87f513          	andi	a0,a5,248
    80003254:	fffff797          	auipc	a5,0xfffff
    80003258:	97aa                	add	a5,a5,a0
    8000325a:	7e2782e7          	jalr	t0,2018(a5) # 80002a36 <get_f64_reg>
    8000325e:	84aa                	mv	s1,a0
    80003260:	0f877513          	andi	a0,a4,248
    80003264:	fffff797          	auipc	a5,0xfffff
    80003268:	97aa                	add	a5,a5,a0
    8000326a:	7d2782e7          	jalr	t0,2002(a5) # 80002a36 <get_f64_reg>
    8000326e:	892a                	mv	s2,a0
    80003270:	0c081063          	bnez	a6,80003330 <emulate_fmin+0x10c>
    80003274:	8526                	mv	a0,s1
    80003276:	85ca                	mv	a1,s2
